
out.elf:     file format elf32-tradlittlemips


Disassembly of section .config_BFC02FF0:

bfc02ff0 <__config_BFC02FF0>:
bfc02ff0:	ff ff fe fa                                         ....

Disassembly of section .config_BFC02FF4:

bfc02ff4 <__config_BFC02FF4>:
bfc02ff4:	d9 79 f8 ff                                         .y..

Disassembly of section .config_BFC02FF8:

bfc02ff8 <__config_BFC02FF8>:
bfc02ff8:	db ce 6c ff                                         ..l.

Disassembly of section .config_BFC02FFC:

bfc02ffc <__config_BFC02FFC>:
bfc02ffc:	ff ff ff 7e                                         ...~

Disassembly of section .reset:

bd001970 <_reset>:
bd001970:	0f40065e 	jal	bd001978 <_startup>
bd001974:	00000000 	nop

bd001978 <_startup>:
bd001978:	401a6000 	mfc0	k0,c0_status
bd00197c:	7f5a04c0 	ext	k0,k0,0x13,0x1
bd001980:	13400005 	beqz	k0,bd001998 <_no_nmi>
bd001984:	00000000 	nop
bd001988:	3c1a9d00 	lui	k0,0x9d00
bd00198c:	275a7abc 	addiu	k0,k0,31420
bd001990:	03400008 	jr	k0
bd001994:	00000000 	nop

bd001998 <_no_nmi>:
bd001998:	3c1da002 	lui	sp,0xa002
bd00199c:	27bdfff0 	addiu	sp,sp,-16
bd0019a0:	3c1ca000 	lui	gp,0xa000
bd0019a4:	279c7ff0 	addiu	gp,gp,32752
bd0019a8:	40096002 	mfc0	t1,c0_srsctl
bd0019ac:	01205820 	add	t3,t1,zero
bd0019b0:	7d2a1e80 	ext	t2,t1,0x1a,0x4
bd0019b4:	7d494984 	ins	t1,t2,0x6,0x4
bd0019b8:	40896002 	mtc0	t1,c0_srsctl
bd0019bc:	000000c0 	ehb
bd0019c0:	41dce000 	wrpgpr	gp,gp
bd0019c4:	408b6002 	mtc0	t3,c0_srsctl
bd0019c8:	000000c0 	ehb
bd0019cc:	3c089d00 	lui	t0,0x9d00
bd0019d0:	25087b2c 	addiu	t0,t0,31532
bd0019d4:	0100f809 	jalr	t0
bd0019d8:	00000000 	nop
bd0019dc:	3c08a000 	lui	t0,0xa000
bd0019e0:	25080008 	addiu	t0,t0,8
bd0019e4:	3c09a000 	lui	t1,0xa000
bd0019e8:	252900d0 	addiu	t1,t1,208
bd0019ec:	10000006 	b	bd001a08 <_bss_check>
bd0019f0:	00000000 	nop

bd0019f4 <_bss_init>:
bd0019f4:	ad000000 	sw	zero,0(t0)
bd0019f8:	ad000004 	sw	zero,4(t0)
bd0019fc:	ad000008 	sw	zero,8(t0)
bd001a00:	ad00000c 	sw	zero,12(t0)
bd001a04:	25080010 	addiu	t0,t0,16

bd001a08 <_bss_check>:
bd001a08:	0109082b 	sltu	at,t0,t1
bd001a0c:	1420fff9 	bnez	at,bd0019f4 <_bss_init>
bd001a10:	00000000 	nop

bd001a14 <_dinit_init>:
bd001a14:	3c089d00 	lui	t0,0x9d00
bd001a18:	25085bc4 	addiu	t0,t0,23492
bd001a1c:	8d090000 	lw	t1,0(t0)
bd001a20:	11200018 	beqz	t1,bd001a84 <_dinit_end+0x18>
bd001a24:	25080004 	addiu	t0,t0,4
bd001a28:	8d0a0000 	lw	t2,0(t0)
bd001a2c:	25080004 	addiu	t0,t0,4
bd001a30:	8d0b0000 	lw	t3,0(t0)
bd001a34:	11600009 	beqz	t3,bd001a5c <_dinit_clear>
bd001a38:	25080004 	addiu	t0,t0,4

bd001a3c <_dinit_copy>:
bd001a3c:	910c0000 	lbu	t4,0(t0)
bd001a40:	254affff 	addiu	t2,t2,-1
bd001a44:	25080001 	addiu	t0,t0,1
bd001a48:	a12c0000 	sb	t4,0(t1)
bd001a4c:	1540fffb 	bnez	t2,bd001a3c <_dinit_copy>
bd001a50:	25290001 	addiu	t1,t1,1
bd001a54:	10000005 	b	bd001a6c <_dinit_end>
bd001a58:	00000000 	nop

bd001a5c <_dinit_clear>:
bd001a5c:	a1200000 	sb	zero,0(t1)
bd001a60:	254affff 	addiu	t2,t2,-1
bd001a64:	1540fffd 	bnez	t2,bd001a5c <_dinit_clear>
bd001a68:	25290001 	addiu	t1,t1,1

bd001a6c <_dinit_end>:
bd001a6c:	25080003 	addiu	t0,t0,3
bd001a70:	240afffc 	li	t2,-4
bd001a74:	01484024 	and	t0,t2,t0
bd001a78:	8d090000 	lw	t1,0(t0)
bd001a7c:	1520ffe7 	bnez	t1,bd001a1c <_dinit_init+0x8>
bd001a80:	00000000 	nop
bd001a84:	3c090000 	lui	t1,0x0
bd001a88:	25290000 	addiu	t1,t1,0
bd001a8c:	11200010 	beqz	t1,bd001ad0 <_ramfunc_done>
bd001a90:	00000000 	nop
bd001a94:	3c090002 	lui	t1,0x2
bd001a98:	25290000 	addiu	t1,t1,0
bd001a9c:	3c0abf88 	lui	t2,0xbf88
bd001aa0:	254a2010 	addiu	t2,t2,8208
bd001aa4:	ad490000 	sw	t1,0(t2)
bd001aa8:	3c090002 	lui	t1,0x2
bd001aac:	25290000 	addiu	t1,t1,0
bd001ab0:	3c0abf88 	lui	t2,0xbf88
bd001ab4:	254a2020 	addiu	t2,t2,8224
bd001ab8:	ad490000 	sw	t1,0(t2)
bd001abc:	3c090002 	lui	t1,0x2
bd001ac0:	25290000 	addiu	t1,t1,0
bd001ac4:	3c0abf88 	lui	t2,0xbf88
bd001ac8:	254a2030 	addiu	t2,t2,8240
bd001acc:	ad490000 	sw	t1,0(t2)

bd001ad0 <_ramfunc_done>:
bd001ad0:	40804800 	mtc0	zero,c0_count
bd001ad4:	240affff 	li	t2,-1
bd001ad8:	408a5800 	mtc0	t2,c0_compare
bd001adc:	3c080040 	lui	t0,0x40
bd001ae0:	400a6000 	mfc0	t2,c0_status
bd001ae4:	010a5025 	or	t2,t0,t2
bd001ae8:	408a6000 	mtc0	t2,c0_status
bd001aec:	3c099d00 	lui	t1,0x9d00
bd001af0:	25290000 	addiu	t1,t1,0
bd001af4:	000000c0 	ehb
bd001af8:	40897801 	mtc0	t1,c0_ebase
bd001afc:	3c090000 	lui	t1,0x0
bd001b00:	25290001 	addiu	t1,t1,1
bd001b04:	240a0000 	li	t2,0
bd001b08:	7d2a4944 	ins	t2,t1,0x5,0x5
bd001b0c:	408a6001 	mtc0	t2,c0_intctl
bd001b10:	3c090080 	lui	t1,0x80
bd001b14:	40896800 	mtc0	t1,c0_cause
bd001b18:	40088000 	mfc0	t0,c0_config
bd001b1c:	7d090580 	ext	t1,t0,0x16,0x1
bd001b20:	00094c40 	sll	t1,t1,0x11
bd001b24:	40086000 	mfc0	t0,c0_status
bd001b28:	3c010058 	lui	at,0x58
bd001b2c:	01014024 	and	t0,t0,at
bd001b30:	01284025 	or	t0,t1,t0
bd001b34:	40886000 	mtc0	t0,c0_status
bd001b38:	000000c0 	ehb
bd001b3c:	3c089d00 	lui	t0,0x9d00
bd001b40:	25087b34 	addiu	t0,t0,31540
bd001b44:	0100f809 	jalr	t0
bd001b48:	00000000 	nop
bd001b4c:	40086000 	mfc0	t0,c0_status
bd001b50:	3c01ffbf 	lui	at,0xffbf
bd001b54:	3421ffff 	ori	at,at,0xffff
bd001b58:	01014024 	and	t0,t0,at
bd001b5c:	40886000 	mtc0	t0,c0_status
bd001b60:	30840000 	andi	a0,a0,0x0
bd001b64:	30a50000 	andi	a1,a1,0x0
bd001b68:	3c089d00 	lui	t0,0x9d00
bd001b6c:	25087714 	addiu	t0,t0,30484
bd001b70:	01000008 	jr	t0
bd001b74:	00000000 	nop

Disassembly of section .bev_excpt:

bd001cf0 <_bev_exception>:
bd001cf0:	3c1a9d00 	lui	k0,0x9d00
bd001cf4:	275a7808 	addiu	k0,k0,30728
bd001cf8:	03400008 	jr	k0
bd001cfc:	00000000 	nop

Disassembly of section .app_excpt:

9d000180 <_gen_exception>:
9d000180:	3c1a9d00 	lui	k0,0x9d00
9d000184:	275a6d3c 	addiu	k0,k0,27964
9d000188:	03400008 	jr	k0
9d00018c:	00000000 	nop

Disassembly of section .vector_0:

9d000200 <__vector_dispatch_0>:
9d000200:	0b401e26 	j	9d007898 <.LFE0>
9d000204:	00000000 	nop

Disassembly of section .vector_1:

9d000220 <__vector_dispatch_1>:
9d000220:	0b401e26 	j	9d007898 <.LFE0>
9d000224:	00000000 	nop

Disassembly of section .vector_2:

9d000240 <__vector_dispatch_2>:
9d000240:	0b401e26 	j	9d007898 <.LFE0>
9d000244:	00000000 	nop

Disassembly of section .vector_3:

9d000260 <__vector_dispatch_3>:
9d000260:	0b401e26 	j	9d007898 <.LFE0>
9d000264:	00000000 	nop

Disassembly of section .vector_4:

9d000280 <__vector_dispatch_4>:
9d000280:	0b401e26 	j	9d007898 <.LFE0>
9d000284:	00000000 	nop

Disassembly of section .vector_5:

9d0002a0 <__vector_dispatch_5>:
9d0002a0:	0b400780 	j	9d001e00 <No1SensorIC1>
9d0002a4:	00000000 	nop

Disassembly of section .vector_6:

9d0002c0 <__vector_dispatch_6>:
9d0002c0:	0b401e26 	j	9d007898 <.LFE0>
9d0002c4:	00000000 	nop

Disassembly of section .vector_7:

9d0002e0 <__vector_dispatch_7>:
9d0002e0:	0b401e26 	j	9d007898 <.LFE0>
9d0002e4:	00000000 	nop

Disassembly of section .vector_8:

9d000300 <__vector_dispatch_8>:
9d000300:	0b401e26 	j	9d007898 <.LFE0>
9d000304:	00000000 	nop

Disassembly of section .vector_9:

9d000320 <__vector_dispatch_9>:
9d000320:	0b400860 	j	9d002180 <No2SensorIC2>
9d000324:	00000000 	nop

Disassembly of section .vector_10:

9d000340 <__vector_dispatch_10>:
9d000340:	0b401e26 	j	9d007898 <.LFE0>
9d000344:	00000000 	nop

Disassembly of section .vector_11:

9d000360 <__vector_dispatch_11>:
9d000360:	0b401e26 	j	9d007898 <.LFE0>
9d000364:	00000000 	nop

Disassembly of section .vector_12:

9d000380 <__vector_dispatch_12>:
9d000380:	0b401e26 	j	9d007898 <.LFE0>
9d000384:	00000000 	nop

Disassembly of section .vector_13:

9d0003a0 <__vector_dispatch_13>:
9d0003a0:	0b40097c 	j	9d0025f0 <No3SensorIC3>
9d0003a4:	00000000 	nop

Disassembly of section .vector_14:

9d0003c0 <__vector_dispatch_14>:
9d0003c0:	0b401e26 	j	9d007898 <.LFE0>
9d0003c4:	00000000 	nop

Disassembly of section .vector_15:

9d0003e0 <__vector_dispatch_15>:
9d0003e0:	0b401e26 	j	9d007898 <.LFE0>
9d0003e4:	00000000 	nop

Disassembly of section .vector_16:

9d000400 <__vector_dispatch_16>:
9d000400:	0b401e26 	j	9d007898 <.LFE0>
9d000404:	00000000 	nop

Disassembly of section .vector_17:

9d000420 <__vector_dispatch_17>:
9d000420:	0b401e26 	j	9d007898 <.LFE0>
9d000424:	00000000 	nop

Disassembly of section .vector_18:

9d000440 <__vector_dispatch_18>:
9d000440:	0b401e26 	j	9d007898 <.LFE0>
9d000444:	00000000 	nop

Disassembly of section .vector_19:

9d000460 <__vector_dispatch_19>:
9d000460:	0b401e26 	j	9d007898 <.LFE0>
9d000464:	00000000 	nop

Disassembly of section .vector_20:

9d000480 <__vector_dispatch_20>:
9d000480:	0b401e26 	j	9d007898 <.LFE0>
9d000484:	00000000 	nop

Disassembly of section .vector_21:

9d0004a0 <__vector_dispatch_21>:
9d0004a0:	0b401e26 	j	9d007898 <.LFE0>
9d0004a4:	00000000 	nop

Disassembly of section .vector_22:

9d0004c0 <__vector_dispatch_22>:
9d0004c0:	0b401e26 	j	9d007898 <.LFE0>
9d0004c4:	00000000 	nop

Disassembly of section .vector_23:

9d0004e0 <__vector_dispatch_23>:
9d0004e0:	0b401e26 	j	9d007898 <.LFE0>
9d0004e4:	00000000 	nop

Disassembly of section .vector_24:

9d000500 <__vector_dispatch_24>:
9d000500:	0b401e26 	j	9d007898 <.LFE0>
9d000504:	00000000 	nop

Disassembly of section .vector_25:

9d000520 <__vector_dispatch_25>:
9d000520:	0b401e26 	j	9d007898 <.LFE0>
9d000524:	00000000 	nop

Disassembly of section .vector_26:

9d000540 <__vector_dispatch_26>:
9d000540:	0b401e26 	j	9d007898 <.LFE0>
9d000544:	00000000 	nop

Disassembly of section .vector_27:

9d000560 <__vector_dispatch_27>:
9d000560:	0b401e26 	j	9d007898 <.LFE0>
9d000564:	00000000 	nop

Disassembly of section .vector_28:

9d000580 <__vector_dispatch_28>:
9d000580:	0b401e26 	j	9d007898 <.LFE0>
9d000584:	00000000 	nop

Disassembly of section .vector_29:

9d0005a0 <__vector_dispatch_29>:
9d0005a0:	0b401e26 	j	9d007898 <.LFE0>
9d0005a4:	00000000 	nop

Disassembly of section .vector_30:

9d0005c0 <__vector_dispatch_30>:
9d0005c0:	0b401e26 	j	9d007898 <.LFE0>
9d0005c4:	00000000 	nop

Disassembly of section .vector_31:

9d0005e0 <__vector_dispatch_31>:
9d0005e0:	0b401e26 	j	9d007898 <.LFE0>
9d0005e4:	00000000 	nop

Disassembly of section .vector_32:

9d000600 <__vector_dispatch_32>:
9d000600:	0b401e26 	j	9d007898 <.LFE0>
9d000604:	00000000 	nop

Disassembly of section .vector_33:

9d000620 <__vector_dispatch_33>:
9d000620:	0b401e26 	j	9d007898 <.LFE0>
9d000624:	00000000 	nop

Disassembly of section .vector_34:

9d000640 <__vector_dispatch_34>:
9d000640:	0b401e26 	j	9d007898 <.LFE0>
9d000644:	00000000 	nop

Disassembly of section .vector_35:

9d000660 <__vector_dispatch_35>:
9d000660:	0b401e26 	j	9d007898 <.LFE0>
9d000664:	00000000 	nop

Disassembly of section .vector_36:

9d000680 <__vector_dispatch_36>:
9d000680:	0b401e26 	j	9d007898 <.LFE0>
9d000684:	00000000 	nop

Disassembly of section .vector_37:

9d0006a0 <__vector_dispatch_37>:
9d0006a0:	0b401e26 	j	9d007898 <.LFE0>
9d0006a4:	00000000 	nop

Disassembly of section .vector_38:

9d0006c0 <__vector_dispatch_38>:
9d0006c0:	0b401e26 	j	9d007898 <.LFE0>
9d0006c4:	00000000 	nop

Disassembly of section .vector_39:

9d0006e0 <__vector_dispatch_39>:
9d0006e0:	0b401e26 	j	9d007898 <.LFE0>
9d0006e4:	00000000 	nop

Disassembly of section .vector_40:

9d000700 <__vector_dispatch_40>:
9d000700:	0b401e26 	j	9d007898 <.LFE0>
9d000704:	00000000 	nop

Disassembly of section .vector_41:

9d000720 <__vector_dispatch_41>:
9d000720:	0b401e26 	j	9d007898 <.LFE0>
9d000724:	00000000 	nop

Disassembly of section .vector_42:

9d000740 <__vector_dispatch_42>:
9d000740:	0b401e26 	j	9d007898 <.LFE0>
9d000744:	00000000 	nop

Disassembly of section .vector_43:

9d000760 <__vector_dispatch_43>:
9d000760:	0b401e26 	j	9d007898 <.LFE0>
9d000764:	00000000 	nop

Disassembly of section .vector_44:

9d000780 <__vector_dispatch_44>:
9d000780:	0b401e26 	j	9d007898 <.LFE0>
9d000784:	00000000 	nop

Disassembly of section .vector_45:

9d0007a0 <__vector_dispatch_45>:
9d0007a0:	0b401e26 	j	9d007898 <.LFE0>
9d0007a4:	00000000 	nop

Disassembly of section .vector_46:

9d0007c0 <__vector_dispatch_46>:
9d0007c0:	0b401e26 	j	9d007898 <.LFE0>
9d0007c4:	00000000 	nop

Disassembly of section .vector_47:

9d0007e0 <__vector_dispatch_47>:
9d0007e0:	0b401e26 	j	9d007898 <.LFE0>
9d0007e4:	00000000 	nop

Disassembly of section .vector_48:

9d000800 <__vector_dispatch_48>:
9d000800:	0b401e26 	j	9d007898 <.LFE0>
9d000804:	00000000 	nop

Disassembly of section .vector_49:

9d000820 <__vector_dispatch_49>:
9d000820:	0b401e26 	j	9d007898 <.LFE0>
9d000824:	00000000 	nop

Disassembly of section .vector_50:

9d000840 <__vector_dispatch_50>:
9d000840:	0b401e26 	j	9d007898 <.LFE0>
9d000844:	00000000 	nop

Disassembly of section .vector_51:

9d000860 <__vector_dispatch_51>:
9d000860:	0b401e26 	j	9d007898 <.LFE0>
9d000864:	00000000 	nop

Disassembly of section ._debug_exception:

bfc00480 <__DbgExecReturn>:
bfc00480:	409bf800 	mtc0	k1,c0_desave
bfc00484:	000000c0 	ehb
bfc00488:	3c1b9d00 	lui	k1,0x9d00
bfc0048c:	277b78e0 	addiu	k1,k1,30944
bfc00490:	13600002 	beqz	k1,bfc0049c <__DbgExecReturn+0x1c>
bfc00494:	00000000 	nop
bfc00498:	409bc000 	mtc0	k1,c0_depc
bfc0049c:	401bf800 	mfc0	k1,c0_desave
bfc004a0:	000000c0 	ehb
bfc004a4:	4200001f 	deret
bfc004a8:	00000000 	nop

Disassembly of section .text:

9d001e00 <No1SensorIC1>:

volatile viveSensor V1;
volatile viveSensor V2;
volatile viveSensor V3;

void __ISR(_INPUT_CAPTURE_1_VECTOR, IPL3SOFT) No1SensorIC1(){
9d001e00:	415de800 	rdpgpr	sp,sp
9d001e04:	401a7000 	mfc0	k0,c0_epc
9d001e08:	401b6000 	mfc0	k1,c0_status
9d001e0c:	27bdff78 	addiu	sp,sp,-136
9d001e10:	afba0084 	sw	k0,132(sp)
9d001e14:	401a6002 	mfc0	k0,c0_srsctl
9d001e18:	afbb0080 	sw	k1,128(sp)
9d001e1c:	afba007c 	sw	k0,124(sp)
9d001e20:	7c1b7844 	ins	k1,zero,0x1,0xf
9d001e24:	377b0c00 	ori	k1,k1,0xc00
9d001e28:	409b6000 	mtc0	k1,c0_status
9d001e2c:	afbf006c 	sw	ra,108(sp)
9d001e30:	afbe0068 	sw	s8,104(sp)
9d001e34:	afb90064 	sw	t9,100(sp)
9d001e38:	afb80060 	sw	t8,96(sp)
9d001e3c:	afaf005c 	sw	t7,92(sp)
9d001e40:	afae0058 	sw	t6,88(sp)
9d001e44:	afad0054 	sw	t5,84(sp)
9d001e48:	afac0050 	sw	t4,80(sp)
9d001e4c:	afab004c 	sw	t3,76(sp)
9d001e50:	afaa0048 	sw	t2,72(sp)
9d001e54:	afa90044 	sw	t1,68(sp)
9d001e58:	afa80040 	sw	t0,64(sp)
9d001e5c:	afa7003c 	sw	a3,60(sp)
9d001e60:	afa60038 	sw	a2,56(sp)
9d001e64:	afa50034 	sw	a1,52(sp)
9d001e68:	afa40030 	sw	a0,48(sp)
9d001e6c:	afa3002c 	sw	v1,44(sp)
9d001e70:	afa20028 	sw	v0,40(sp)
9d001e74:	afa10024 	sw	at,36(sp)
9d001e78:	00001012 	mflo	v0
9d001e7c:	afa20074 	sw	v0,116(sp)
9d001e80:	00001810 	mfhi	v1
9d001e84:	afa30070 	sw	v1,112(sp)
9d001e88:	03a0f021 	move	s8,sp
	//get the time the interrupt occured
    long mic = _CP0_GET_COUNT();
9d001e8c:	40024800 	mfc0	v0,c0_count
9d001e90:	afc20010 	sw	v0,16(s8)
    int i;
    int unuse = IC1BUF;
9d001e94:	3c02bf80 	lui	v0,0xbf80
9d001e98:	8c422010 	lw	v0,8208(v0)
9d001e9c:	afc20018 	sw	v0,24(s8)
    //check for coreTimer overflow
    while (mic < V1.prevMic ){
9d001ea0:	0b4007ad 	j	9d001eb4 <No1SensorIC1+0xb4>
9d001ea4:	00000000 	nop
        mic = mic + 4294967295;  //largest unsigned 32bit int
9d001ea8:	8fc20010 	lw	v0,16(s8)
9d001eac:	2442ffff 	addiu	v0,v0,-1
9d001eb0:	afc20010 	sw	v0,16(s8)
	//get the time the interrupt occured
    long mic = _CP0_GET_COUNT();
    int i;
    int unuse = IC1BUF;
    //check for coreTimer overflow
    while (mic < V1.prevMic ){
9d001eb4:	3c02a000 	lui	v0,0xa000
9d001eb8:	24420050 	addiu	v0,v0,80
9d001ebc:	8c43002c 	lw	v1,44(v0)
9d001ec0:	8fc20010 	lw	v0,16(s8)
9d001ec4:	0043102a 	slt	v0,v0,v1
9d001ec8:	1440fff7 	bnez	v0,9d001ea8 <No1SensorIC1+0xa8>
9d001ecc:	00000000 	nop
        mic = mic + 4294967295;  //largest unsigned 32bit int
    }
    //shift the time into buffer
    for(i = 0; i<10; i++){
9d001ed0:	afc00014 	sw	zero,20(s8)
9d001ed4:	0b4007c7 	j	9d001f1c <No1SensorIC1+0x11c>
9d001ed8:	00000000 	nop
        V1.changeTime[i] = V1.changeTime[i+1]; //shift every time to front position
9d001edc:	8fc20014 	lw	v0,20(s8)
9d001ee0:	24430001 	addiu	v1,v0,1
9d001ee4:	3c02a000 	lui	v0,0xa000
9d001ee8:	00031880 	sll	v1,v1,0x2
9d001eec:	24420050 	addiu	v0,v0,80
9d001ef0:	00621021 	addu	v0,v1,v0
9d001ef4:	8c430000 	lw	v1,0(v0)
9d001ef8:	3c02a000 	lui	v0,0xa000
9d001efc:	8fc40014 	lw	a0,20(s8)
9d001f00:	00042080 	sll	a0,a0,0x2
9d001f04:	24420050 	addiu	v0,v0,80
9d001f08:	00821021 	addu	v0,a0,v0
9d001f0c:	ac430000 	sw	v1,0(v0)
    //check for coreTimer overflow
    while (mic < V1.prevMic ){
        mic = mic + 4294967295;  //largest unsigned 32bit int
    }
    //shift the time into buffer
    for(i = 0; i<10; i++){
9d001f10:	8fc20014 	lw	v0,20(s8)
9d001f14:	24420001 	addiu	v0,v0,1
9d001f18:	afc20014 	sw	v0,20(s8)
9d001f1c:	8fc20014 	lw	v0,20(s8)
9d001f20:	2842000a 	slti	v0,v0,10
9d001f24:	1440ffed 	bnez	v0,9d001edc <No1SensorIC1+0xdc>
9d001f28:	00000000 	nop
        V1.changeTime[i] = V1.changeTime[i+1]; //shift every time to front position
    }
    V1.changeTime[10] = mic; //store the mic into the last position
9d001f2c:	3c02a000 	lui	v0,0xa000
9d001f30:	24420050 	addiu	v0,v0,80
9d001f34:	8fc30010 	lw	v1,16(s8)
9d001f38:	ac430028 	sw	v1,40(v0)
    //if the buffer is not full 
    if(V1.collected < 11){
9d001f3c:	3c02a000 	lui	v0,0xa000
9d001f40:	24420050 	addiu	v0,v0,80
9d001f44:	8c42003c 	lw	v0,60(v0)
9d001f48:	2842000b 	slti	v0,v0,11
9d001f4c:	1040000a 	beqz	v0,9d001f78 <No1SensorIC1+0x178>
9d001f50:	00000000 	nop
        V1.collected++;
9d001f54:	3c02a000 	lui	v0,0xa000
9d001f58:	24420050 	addiu	v0,v0,80
9d001f5c:	8c42003c 	lw	v0,60(v0)
9d001f60:	24430001 	addiu	v1,v0,1
9d001f64:	3c02a000 	lui	v0,0xa000
9d001f68:	24420050 	addiu	v0,v0,80
9d001f6c:	ac43003c 	sw	v1,60(v0)
9d001f70:	0b400835 	j	9d0020d4 <No1SensorIC1+0x2d4>
9d001f74:	00000000 	nop
    }else{//when the buffer is full, check data in buffer conforms to (sync sync sweep sync sweep)
        // if the timer values match the waveform pattern when about 7 feet away from the emitter
        if ((V1.changeTime[1] - V1.changeTime[0] > 7000 * 24) && (V1.changeTime[3] - V1.changeTime[2] > 7000 * 24) && (V1.changeTime[6] - V1.changeTime[5] < 50 * 24) && (V1.changeTime[10] - V1.changeTime[9] < 50 * 24)) {
9d001f78:	3c02a000 	lui	v0,0xa000
9d001f7c:	24420050 	addiu	v0,v0,80
9d001f80:	8c430004 	lw	v1,4(v0)
9d001f84:	3c02a000 	lui	v0,0xa000
9d001f88:	8c420050 	lw	v0,80(v0)
9d001f8c:	00621823 	subu	v1,v1,v0
9d001f90:	3c020002 	lui	v0,0x2
9d001f94:	34429041 	ori	v0,v0,0x9041
9d001f98:	0062102a 	slt	v0,v1,v0
9d001f9c:	1440004d 	bnez	v0,9d0020d4 <No1SensorIC1+0x2d4>
9d001fa0:	00000000 	nop
9d001fa4:	3c02a000 	lui	v0,0xa000
9d001fa8:	24420050 	addiu	v0,v0,80
9d001fac:	8c43000c 	lw	v1,12(v0)
9d001fb0:	3c02a000 	lui	v0,0xa000
9d001fb4:	24420050 	addiu	v0,v0,80
9d001fb8:	8c420008 	lw	v0,8(v0)
9d001fbc:	00621823 	subu	v1,v1,v0
9d001fc0:	3c020002 	lui	v0,0x2
9d001fc4:	34429041 	ori	v0,v0,0x9041
9d001fc8:	0062102a 	slt	v0,v1,v0
9d001fcc:	14400041 	bnez	v0,9d0020d4 <No1SensorIC1+0x2d4>
9d001fd0:	00000000 	nop
9d001fd4:	3c02a000 	lui	v0,0xa000
9d001fd8:	24420050 	addiu	v0,v0,80
9d001fdc:	8c430018 	lw	v1,24(v0)
9d001fe0:	3c02a000 	lui	v0,0xa000
9d001fe4:	24420050 	addiu	v0,v0,80
9d001fe8:	8c420014 	lw	v0,20(v0)
9d001fec:	00621023 	subu	v0,v1,v0
9d001ff0:	284204b0 	slti	v0,v0,1200
9d001ff4:	10400037 	beqz	v0,9d0020d4 <No1SensorIC1+0x2d4>
9d001ff8:	00000000 	nop
9d001ffc:	3c02a000 	lui	v0,0xa000
9d002000:	24420050 	addiu	v0,v0,80
9d002004:	8c430028 	lw	v1,40(v0)
9d002008:	3c02a000 	lui	v0,0xa000
9d00200c:	24420050 	addiu	v0,v0,80
9d002010:	8c420024 	lw	v0,36(v0)
9d002014:	00621023 	subu	v0,v1,v0
9d002018:	284204b0 	slti	v0,v0,1200
9d00201c:	1040002d 	beqz	v0,9d0020d4 <No1SensorIC1+0x2d4>
9d002020:	00000000 	nop
            V1.horzAng = (V1.changeTime[5] - V1.changeTime[4]) * DEG_PER_CORE;
9d002024:	3c02a000 	lui	v0,0xa000
9d002028:	24420050 	addiu	v0,v0,80
9d00202c:	8c430014 	lw	v1,20(v0)
9d002030:	3c02a000 	lui	v0,0xa000
9d002034:	24420050 	addiu	v0,v0,80
9d002038:	8c420010 	lw	v0,16(v0)
9d00203c:	00621023 	subu	v0,v1,v0
9d002040:	00402021 	move	a0,v0
9d002044:	0f401dad 	jal	9d0076b4 <.LFE23>
9d002048:	00000000 	nop
9d00204c:	00401821 	move	v1,v0
9d002050:	3c029d00 	lui	v0,0x9d00
9d002054:	00602021 	move	a0,v1
9d002058:	8c457a74 	lw	a1,31348(v0)
9d00205c:	0f40188e 	jal	9d006238 <__mulsf3>
9d002060:	00000000 	nop
9d002064:	00401821 	move	v1,v0
9d002068:	3c02a000 	lui	v0,0xa000
9d00206c:	24420050 	addiu	v0,v0,80
9d002070:	ac430030 	sw	v1,48(v0)
            V1.vertAng = (V1.changeTime[9] - V1.changeTime[8]) * DEG_PER_CORE;
9d002074:	3c02a000 	lui	v0,0xa000
9d002078:	24420050 	addiu	v0,v0,80
9d00207c:	8c430024 	lw	v1,36(v0)
9d002080:	3c02a000 	lui	v0,0xa000
9d002084:	24420050 	addiu	v0,v0,80
9d002088:	8c420020 	lw	v0,32(v0)
9d00208c:	00621023 	subu	v0,v1,v0
9d002090:	00402021 	move	a0,v0
9d002094:	0f401dad 	jal	9d0076b4 <.LFE23>
9d002098:	00000000 	nop
9d00209c:	00401821 	move	v1,v0
9d0020a0:	3c029d00 	lui	v0,0x9d00
9d0020a4:	00602021 	move	a0,v1
9d0020a8:	8c457a74 	lw	a1,31348(v0)
9d0020ac:	0f40188e 	jal	9d006238 <__mulsf3>
9d0020b0:	00000000 	nop
9d0020b4:	00401821 	move	v1,v0
9d0020b8:	3c02a000 	lui	v0,0xa000
9d0020bc:	24420050 	addiu	v0,v0,80
9d0020c0:	ac430034 	sw	v1,52(v0)
            V1.useMe = 1; 
9d0020c4:	3c02a000 	lui	v0,0xa000
9d0020c8:	24420050 	addiu	v0,v0,80
9d0020cc:	24030001 	li	v1,1
9d0020d0:	ac430038 	sw	v1,56(v0)
         //    double yPos = tan((V1.horzAng - 90.0) * DEG_TO_RAD) * LIGHTHOUSEHEIGHT;
         //    sprintf(buffer,"x=%f, y= %f\r\n",xPos,yPos);
	        // NU32_WriteUART3(buffer);
        }
    }
    V1.prevMic = mic;
9d0020d4:	3c02a000 	lui	v0,0xa000
9d0020d8:	24420050 	addiu	v0,v0,80
9d0020dc:	8fc30010 	lw	v1,16(s8)
9d0020e0:	ac43002c 	sw	v1,44(v0)
    IFS0bits.IC1IF = 0; //clear the interrupt flag
9d0020e4:	3c03bf88 	lui	v1,0xbf88
9d0020e8:	8c621030 	lw	v0,4144(v1)
9d0020ec:	7c022944 	ins	v0,zero,0x5,0x1
9d0020f0:	ac621030 	sw	v0,4144(v1)
}
9d0020f4:	03c0e821 	move	sp,s8
9d0020f8:	8fa20074 	lw	v0,116(sp)
9d0020fc:	00400013 	mtlo	v0
9d002100:	8fa30070 	lw	v1,112(sp)
9d002104:	00600011 	mthi	v1
9d002108:	8fbf006c 	lw	ra,108(sp)
9d00210c:	8fbe0068 	lw	s8,104(sp)
9d002110:	8fb90064 	lw	t9,100(sp)
9d002114:	8fb80060 	lw	t8,96(sp)
9d002118:	8faf005c 	lw	t7,92(sp)
9d00211c:	8fae0058 	lw	t6,88(sp)
9d002120:	8fad0054 	lw	t5,84(sp)
9d002124:	8fac0050 	lw	t4,80(sp)
9d002128:	8fab004c 	lw	t3,76(sp)
9d00212c:	8faa0048 	lw	t2,72(sp)
9d002130:	8fa90044 	lw	t1,68(sp)
9d002134:	8fa80040 	lw	t0,64(sp)
9d002138:	8fa7003c 	lw	a3,60(sp)
9d00213c:	8fa60038 	lw	a2,56(sp)
9d002140:	8fa50034 	lw	a1,52(sp)
9d002144:	8fa40030 	lw	a0,48(sp)
9d002148:	8fa3002c 	lw	v1,44(sp)
9d00214c:	8fa20028 	lw	v0,40(sp)
9d002150:	8fa10024 	lw	at,36(sp)
9d002154:	41606000 	di
9d002158:	000000c0 	ehb
9d00215c:	8fba0084 	lw	k0,132(sp)
9d002160:	8fbb0080 	lw	k1,128(sp)
9d002164:	409a7000 	mtc0	k0,c0_epc
9d002168:	8fba007c 	lw	k0,124(sp)
9d00216c:	27bd0088 	addiu	sp,sp,136
9d002170:	409a6002 	mtc0	k0,c0_srsctl
9d002174:	41dde800 	wrpgpr	sp,sp
9d002178:	409b6000 	mtc0	k1,c0_status
9d00217c:	42000018 	eret

9d002180 <No2SensorIC2>:
 
void __ISR(_INPUT_CAPTURE_2_VECTOR, IPL4SOFT) No2SensorIC2(){
9d002180:	415de800 	rdpgpr	sp,sp
9d002184:	401a7000 	mfc0	k0,c0_epc
9d002188:	401b6000 	mfc0	k1,c0_status
9d00218c:	27bdff70 	addiu	sp,sp,-144
9d002190:	afba008c 	sw	k0,140(sp)
9d002194:	401a6002 	mfc0	k0,c0_srsctl
9d002198:	afbb0088 	sw	k1,136(sp)
9d00219c:	afba0084 	sw	k0,132(sp)
9d0021a0:	7c1b7844 	ins	k1,zero,0x1,0xf
9d0021a4:	377b1000 	ori	k1,k1,0x1000
9d0021a8:	409b6000 	mtc0	k1,c0_status
9d0021ac:	afbf0074 	sw	ra,116(sp)
9d0021b0:	afbe0070 	sw	s8,112(sp)
9d0021b4:	afb9006c 	sw	t9,108(sp)
9d0021b8:	afb80068 	sw	t8,104(sp)
9d0021bc:	afaf0064 	sw	t7,100(sp)
9d0021c0:	afae0060 	sw	t6,96(sp)
9d0021c4:	afad005c 	sw	t5,92(sp)
9d0021c8:	afac0058 	sw	t4,88(sp)
9d0021cc:	afab0054 	sw	t3,84(sp)
9d0021d0:	afaa0050 	sw	t2,80(sp)
9d0021d4:	afa9004c 	sw	t1,76(sp)
9d0021d8:	afa80048 	sw	t0,72(sp)
9d0021dc:	afa70044 	sw	a3,68(sp)
9d0021e0:	afa60040 	sw	a2,64(sp)
9d0021e4:	afa5003c 	sw	a1,60(sp)
9d0021e8:	afa40038 	sw	a0,56(sp)
9d0021ec:	afa30034 	sw	v1,52(sp)
9d0021f0:	afa20030 	sw	v0,48(sp)
9d0021f4:	afa1002c 	sw	at,44(sp)
9d0021f8:	00001012 	mflo	v0
9d0021fc:	afa2007c 	sw	v0,124(sp)
9d002200:	00001810 	mfhi	v1
9d002204:	afa30078 	sw	v1,120(sp)
9d002208:	03a0f021 	move	s8,sp
	//get the time the interrupt occured
    long mic = _CP0_GET_COUNT();
9d00220c:	40024800 	mfc0	v0,c0_count
9d002210:	afc20010 	sw	v0,16(s8)
    int i;
    int unuse = IC2BUF;
9d002214:	3c02bf80 	lui	v0,0xbf80
9d002218:	8c422210 	lw	v0,8720(v0)
9d00221c:	afc20018 	sw	v0,24(s8)
    // sprintf(buffer,"%d\n\r",_CP0_GET_COUNT());
    // NU32_WriteUART3(buffer);
    //check for coreTimer overflow
    while (mic < V2.prevMic ){
9d002220:	0b40088d 	j	9d002234 <No2SensorIC2+0xb4>
9d002224:	00000000 	nop
        mic = mic + 4294967295;  //largest unsigned 32bit int
9d002228:	8fc20010 	lw	v0,16(s8)
9d00222c:	2442ffff 	addiu	v0,v0,-1
9d002230:	afc20010 	sw	v0,16(s8)
    int i;
    int unuse = IC2BUF;
    // sprintf(buffer,"%d\n\r",_CP0_GET_COUNT());
    // NU32_WriteUART3(buffer);
    //check for coreTimer overflow
    while (mic < V2.prevMic ){
9d002234:	3c02a000 	lui	v0,0xa000
9d002238:	24420010 	addiu	v0,v0,16
9d00223c:	8c43002c 	lw	v1,44(v0)
9d002240:	8fc20010 	lw	v0,16(s8)
9d002244:	0043102a 	slt	v0,v0,v1
9d002248:	1440fff7 	bnez	v0,9d002228 <No2SensorIC2+0xa8>
9d00224c:	00000000 	nop
        mic = mic + 4294967295;  //largest unsigned 32bit int
    }
    //shift the time into buffer
    for(i = 0; i<10; i++){
9d002250:	afc00014 	sw	zero,20(s8)
9d002254:	0b4008a7 	j	9d00229c <No2SensorIC2+0x11c>
9d002258:	00000000 	nop
        V2.changeTime[i] = V2.changeTime[i+1]; //shift every time to front position
9d00225c:	8fc20014 	lw	v0,20(s8)
9d002260:	24430001 	addiu	v1,v0,1
9d002264:	3c02a000 	lui	v0,0xa000
9d002268:	00031880 	sll	v1,v1,0x2
9d00226c:	24420010 	addiu	v0,v0,16
9d002270:	00621021 	addu	v0,v1,v0
9d002274:	8c430000 	lw	v1,0(v0)
9d002278:	3c02a000 	lui	v0,0xa000
9d00227c:	8fc40014 	lw	a0,20(s8)
9d002280:	00042080 	sll	a0,a0,0x2
9d002284:	24420010 	addiu	v0,v0,16
9d002288:	00821021 	addu	v0,a0,v0
9d00228c:	ac430000 	sw	v1,0(v0)
    //check for coreTimer overflow
    while (mic < V2.prevMic ){
        mic = mic + 4294967295;  //largest unsigned 32bit int
    }
    //shift the time into buffer
    for(i = 0; i<10; i++){
9d002290:	8fc20014 	lw	v0,20(s8)
9d002294:	24420001 	addiu	v0,v0,1
9d002298:	afc20014 	sw	v0,20(s8)
9d00229c:	8fc20014 	lw	v0,20(s8)
9d0022a0:	2842000a 	slti	v0,v0,10
9d0022a4:	1440ffed 	bnez	v0,9d00225c <No2SensorIC2+0xdc>
9d0022a8:	00000000 	nop
        V2.changeTime[i] = V2.changeTime[i+1]; //shift every time to front position
    }
    V2.changeTime[10] = mic; //store the mic into the last position
9d0022ac:	3c02a000 	lui	v0,0xa000
9d0022b0:	24420010 	addiu	v0,v0,16
9d0022b4:	8fc30010 	lw	v1,16(s8)
9d0022b8:	ac430028 	sw	v1,40(v0)
    //if the buffer is not full 
    if(V2.collected < 11){
9d0022bc:	3c02a000 	lui	v0,0xa000
9d0022c0:	24420010 	addiu	v0,v0,16
9d0022c4:	8c42003c 	lw	v0,60(v0)
9d0022c8:	2842000b 	slti	v0,v0,11
9d0022cc:	1040000a 	beqz	v0,9d0022f8 <No2SensorIC2+0x178>
9d0022d0:	00000000 	nop
        V2.collected++;
9d0022d4:	3c02a000 	lui	v0,0xa000
9d0022d8:	24420010 	addiu	v0,v0,16
9d0022dc:	8c42003c 	lw	v0,60(v0)
9d0022e0:	24430001 	addiu	v1,v0,1
9d0022e4:	3c02a000 	lui	v0,0xa000
9d0022e8:	24420010 	addiu	v0,v0,16
9d0022ec:	ac43003c 	sw	v1,60(v0)
9d0022f0:	0b400951 	j	9d002544 <No2SensorIC2+0x3c4>
9d0022f4:	00000000 	nop
    }else{//when the buffer is full, check data in buffer conforms to (sync sync sweep sync sweep)
        // if the timer values match the waveform pattern when about 7 feet away from the emitter
        if ((V2.changeTime[1] - V2.changeTime[0] > 7000 * 24) && (V2.changeTime[3] - V2.changeTime[2] > 7000 * 24) && (V2.changeTime[6] - V2.changeTime[5] < 50 * 24) && (V2.changeTime[10] - V2.changeTime[9] < 50 * 24)) {
9d0022f8:	3c02a000 	lui	v0,0xa000
9d0022fc:	24420010 	addiu	v0,v0,16
9d002300:	8c430004 	lw	v1,4(v0)
9d002304:	3c02a000 	lui	v0,0xa000
9d002308:	8c420010 	lw	v0,16(v0)
9d00230c:	00621823 	subu	v1,v1,v0
9d002310:	3c020002 	lui	v0,0x2
9d002314:	34429041 	ori	v0,v0,0x9041
9d002318:	0062102a 	slt	v0,v1,v0
9d00231c:	14400089 	bnez	v0,9d002544 <No2SensorIC2+0x3c4>
9d002320:	00000000 	nop
9d002324:	3c02a000 	lui	v0,0xa000
9d002328:	24420010 	addiu	v0,v0,16
9d00232c:	8c43000c 	lw	v1,12(v0)
9d002330:	3c02a000 	lui	v0,0xa000
9d002334:	24420010 	addiu	v0,v0,16
9d002338:	8c420008 	lw	v0,8(v0)
9d00233c:	00621823 	subu	v1,v1,v0
9d002340:	3c020002 	lui	v0,0x2
9d002344:	34429041 	ori	v0,v0,0x9041
9d002348:	0062102a 	slt	v0,v1,v0
9d00234c:	1440007d 	bnez	v0,9d002544 <No2SensorIC2+0x3c4>
9d002350:	00000000 	nop
9d002354:	3c02a000 	lui	v0,0xa000
9d002358:	24420010 	addiu	v0,v0,16
9d00235c:	8c430018 	lw	v1,24(v0)
9d002360:	3c02a000 	lui	v0,0xa000
9d002364:	24420010 	addiu	v0,v0,16
9d002368:	8c420014 	lw	v0,20(v0)
9d00236c:	00621023 	subu	v0,v1,v0
9d002370:	284204b0 	slti	v0,v0,1200
9d002374:	10400073 	beqz	v0,9d002544 <No2SensorIC2+0x3c4>
9d002378:	00000000 	nop
9d00237c:	3c02a000 	lui	v0,0xa000
9d002380:	24420010 	addiu	v0,v0,16
9d002384:	8c430028 	lw	v1,40(v0)
9d002388:	3c02a000 	lui	v0,0xa000
9d00238c:	24420010 	addiu	v0,v0,16
9d002390:	8c420024 	lw	v0,36(v0)
9d002394:	00621023 	subu	v0,v1,v0
9d002398:	284204b0 	slti	v0,v0,1200
9d00239c:	10400069 	beqz	v0,9d002544 <No2SensorIC2+0x3c4>
9d0023a0:	00000000 	nop
            V2.horzAng = (V2.changeTime[5] - V2.changeTime[4]) * DEG_PER_CORE;
9d0023a4:	3c02a000 	lui	v0,0xa000
9d0023a8:	24420010 	addiu	v0,v0,16
9d0023ac:	8c430014 	lw	v1,20(v0)
9d0023b0:	3c02a000 	lui	v0,0xa000
9d0023b4:	24420010 	addiu	v0,v0,16
9d0023b8:	8c420010 	lw	v0,16(v0)
9d0023bc:	00621023 	subu	v0,v1,v0
9d0023c0:	00402021 	move	a0,v0
9d0023c4:	0f401dad 	jal	9d0076b4 <.LFE23>
9d0023c8:	00000000 	nop
9d0023cc:	00401821 	move	v1,v0
9d0023d0:	3c029d00 	lui	v0,0x9d00
9d0023d4:	00602021 	move	a0,v1
9d0023d8:	8c457a74 	lw	a1,31348(v0)
9d0023dc:	0f40188e 	jal	9d006238 <__mulsf3>
9d0023e0:	00000000 	nop
9d0023e4:	00401821 	move	v1,v0
9d0023e8:	3c02a000 	lui	v0,0xa000
9d0023ec:	24420010 	addiu	v0,v0,16
9d0023f0:	ac430030 	sw	v1,48(v0)
            V2.vertAng = (V2.changeTime[9] - V2.changeTime[8]) * DEG_PER_CORE;
9d0023f4:	3c02a000 	lui	v0,0xa000
9d0023f8:	24420010 	addiu	v0,v0,16
9d0023fc:	8c430024 	lw	v1,36(v0)
9d002400:	3c02a000 	lui	v0,0xa000
9d002404:	24420010 	addiu	v0,v0,16
9d002408:	8c420020 	lw	v0,32(v0)
9d00240c:	00621023 	subu	v0,v1,v0
9d002410:	00402021 	move	a0,v0
9d002414:	0f401dad 	jal	9d0076b4 <.LFE23>
9d002418:	00000000 	nop
9d00241c:	00401821 	move	v1,v0
9d002420:	3c029d00 	lui	v0,0x9d00
9d002424:	00602021 	move	a0,v1
9d002428:	8c457a74 	lw	a1,31348(v0)
9d00242c:	0f40188e 	jal	9d006238 <__mulsf3>
9d002430:	00000000 	nop
9d002434:	00401821 	move	v1,v0
9d002438:	3c02a000 	lui	v0,0xa000
9d00243c:	24420010 	addiu	v0,v0,16
9d002440:	ac430034 	sw	v1,52(v0)
            V2.useMe = 1; 
9d002444:	3c02a000 	lui	v0,0xa000
9d002448:	24420010 	addiu	v0,v0,16
9d00244c:	24030001 	li	v1,1
9d002450:	ac430038 	sw	v1,56(v0)

            double xPos = tan((V2.vertAng - 90.0) * DEG_TO_RAD) * LIGHTHOUSEHEIGHT;
9d002454:	3c02a000 	lui	v0,0xa000
9d002458:	24420010 	addiu	v0,v0,16
9d00245c:	8c430034 	lw	v1,52(v0)
9d002460:	3c029d00 	lui	v0,0x9d00
9d002464:	00602021 	move	a0,v1
9d002468:	8c457a78 	lw	a1,31352(v0)
9d00246c:	0f401653 	jal	9d00594c <__subsf3>
9d002470:	00000000 	nop
9d002474:	00401821 	move	v1,v0
9d002478:	3c029d00 	lui	v0,0x9d00
9d00247c:	00602021 	move	a0,v1
9d002480:	8c457a7c 	lw	a1,31356(v0)
9d002484:	0f40188e 	jal	9d006238 <__mulsf3>
9d002488:	00000000 	nop
9d00248c:	00402021 	move	a0,v0
9d002490:	0f4018fd 	jal	9d0063f4 <fptan>
9d002494:	00000000 	nop
9d002498:	00401821 	move	v1,v0
9d00249c:	3c029d00 	lui	v0,0x9d00
9d0024a0:	00602021 	move	a0,v1
9d0024a4:	8c457a80 	lw	a1,31360(v0)
9d0024a8:	0f40188e 	jal	9d006238 <__mulsf3>
9d0024ac:	00000000 	nop
9d0024b0:	afc2001c 	sw	v0,28(s8)
            double yPos = tan((V2.horzAng - 90.0) * DEG_TO_RAD) * LIGHTHOUSEHEIGHT;
9d0024b4:	3c02a000 	lui	v0,0xa000
9d0024b8:	24420010 	addiu	v0,v0,16
9d0024bc:	8c430030 	lw	v1,48(v0)
9d0024c0:	3c029d00 	lui	v0,0x9d00
9d0024c4:	00602021 	move	a0,v1
9d0024c8:	8c457a78 	lw	a1,31352(v0)
9d0024cc:	0f401653 	jal	9d00594c <__subsf3>
9d0024d0:	00000000 	nop
9d0024d4:	00401821 	move	v1,v0
9d0024d8:	3c029d00 	lui	v0,0x9d00
9d0024dc:	00602021 	move	a0,v1
9d0024e0:	8c457a7c 	lw	a1,31356(v0)
9d0024e4:	0f40188e 	jal	9d006238 <__mulsf3>
9d0024e8:	00000000 	nop
9d0024ec:	00402021 	move	a0,v0
9d0024f0:	0f4018fd 	jal	9d0063f4 <fptan>
9d0024f4:	00000000 	nop
9d0024f8:	00401821 	move	v1,v0
9d0024fc:	3c029d00 	lui	v0,0x9d00
9d002500:	00602021 	move	a0,v1
9d002504:	8c457a80 	lw	a1,31360(v0)
9d002508:	0f40188e 	jal	9d006238 <__mulsf3>
9d00250c:	00000000 	nop
9d002510:	afc20020 	sw	v0,32(s8)
            sprintf(buffer,"x=%f, y= %f\r\n",xPos,yPos);
9d002514:	3c02a000 	lui	v0,0xa000
9d002518:	244402b8 	addiu	a0,v0,696
9d00251c:	3c029d00 	lui	v0,0x9d00
9d002520:	24457a64 	addiu	a1,v0,31332
9d002524:	8fc6001c 	lw	a2,28(s8)
9d002528:	8fc70020 	lw	a3,32(s8)
9d00252c:	0f401d5f 	jal	9d00757c <_sprintf_fF>
9d002530:	00000000 	nop
	        NU32_WriteUART3(buffer);
9d002534:	3c02a000 	lui	v0,0xa000
9d002538:	244402b8 	addiu	a0,v0,696
9d00253c:	0f401589 	jal	9d005624 <NU32_WriteUART3>
9d002540:	00000000 	nop
        }
    }
    V2.prevMic = mic;
9d002544:	3c02a000 	lui	v0,0xa000
9d002548:	24420010 	addiu	v0,v0,16
9d00254c:	8fc30010 	lw	v1,16(s8)
9d002550:	ac43002c 	sw	v1,44(v0)
    IFS0bits.IC2IF = 0; //clear the interrupt flag
9d002554:	3c03bf88 	lui	v1,0xbf88
9d002558:	8c621030 	lw	v0,4144(v1)
9d00255c:	7c024a44 	ins	v0,zero,0x9,0x1
9d002560:	ac621030 	sw	v0,4144(v1)
}
9d002564:	03c0e821 	move	sp,s8
9d002568:	8fa2007c 	lw	v0,124(sp)
9d00256c:	00400013 	mtlo	v0
9d002570:	8fa30078 	lw	v1,120(sp)
9d002574:	00600011 	mthi	v1
9d002578:	8fbf0074 	lw	ra,116(sp)
9d00257c:	8fbe0070 	lw	s8,112(sp)
9d002580:	8fb9006c 	lw	t9,108(sp)
9d002584:	8fb80068 	lw	t8,104(sp)
9d002588:	8faf0064 	lw	t7,100(sp)
9d00258c:	8fae0060 	lw	t6,96(sp)
9d002590:	8fad005c 	lw	t5,92(sp)
9d002594:	8fac0058 	lw	t4,88(sp)
9d002598:	8fab0054 	lw	t3,84(sp)
9d00259c:	8faa0050 	lw	t2,80(sp)
9d0025a0:	8fa9004c 	lw	t1,76(sp)
9d0025a4:	8fa80048 	lw	t0,72(sp)
9d0025a8:	8fa70044 	lw	a3,68(sp)
9d0025ac:	8fa60040 	lw	a2,64(sp)
9d0025b0:	8fa5003c 	lw	a1,60(sp)
9d0025b4:	8fa40038 	lw	a0,56(sp)
9d0025b8:	8fa30034 	lw	v1,52(sp)
9d0025bc:	8fa20030 	lw	v0,48(sp)
9d0025c0:	8fa1002c 	lw	at,44(sp)
9d0025c4:	41606000 	di
9d0025c8:	000000c0 	ehb
9d0025cc:	8fba008c 	lw	k0,140(sp)
9d0025d0:	8fbb0088 	lw	k1,136(sp)
9d0025d4:	409a7000 	mtc0	k0,c0_epc
9d0025d8:	8fba0084 	lw	k0,132(sp)
9d0025dc:	27bd0090 	addiu	sp,sp,144
9d0025e0:	409a6002 	mtc0	k0,c0_srsctl
9d0025e4:	41dde800 	wrpgpr	sp,sp
9d0025e8:	409b6000 	mtc0	k1,c0_status
9d0025ec:	42000018 	eret

9d0025f0 <No3SensorIC3>:

void __ISR(_INPUT_CAPTURE_3_VECTOR, IPL5SOFT) No3SensorIC3(){
9d0025f0:	415de800 	rdpgpr	sp,sp
9d0025f4:	401a7000 	mfc0	k0,c0_epc
9d0025f8:	401b6000 	mfc0	k1,c0_status
9d0025fc:	27bdff78 	addiu	sp,sp,-136
9d002600:	afba0084 	sw	k0,132(sp)
9d002604:	401a6002 	mfc0	k0,c0_srsctl
9d002608:	afbb0080 	sw	k1,128(sp)
9d00260c:	afba007c 	sw	k0,124(sp)
9d002610:	7c1b7844 	ins	k1,zero,0x1,0xf
9d002614:	377b1400 	ori	k1,k1,0x1400
9d002618:	409b6000 	mtc0	k1,c0_status
9d00261c:	afbf006c 	sw	ra,108(sp)
9d002620:	afbe0068 	sw	s8,104(sp)
9d002624:	afb90064 	sw	t9,100(sp)
9d002628:	afb80060 	sw	t8,96(sp)
9d00262c:	afaf005c 	sw	t7,92(sp)
9d002630:	afae0058 	sw	t6,88(sp)
9d002634:	afad0054 	sw	t5,84(sp)
9d002638:	afac0050 	sw	t4,80(sp)
9d00263c:	afab004c 	sw	t3,76(sp)
9d002640:	afaa0048 	sw	t2,72(sp)
9d002644:	afa90044 	sw	t1,68(sp)
9d002648:	afa80040 	sw	t0,64(sp)
9d00264c:	afa7003c 	sw	a3,60(sp)
9d002650:	afa60038 	sw	a2,56(sp)
9d002654:	afa50034 	sw	a1,52(sp)
9d002658:	afa40030 	sw	a0,48(sp)
9d00265c:	afa3002c 	sw	v1,44(sp)
9d002660:	afa20028 	sw	v0,40(sp)
9d002664:	afa10024 	sw	at,36(sp)
9d002668:	00001012 	mflo	v0
9d00266c:	afa20074 	sw	v0,116(sp)
9d002670:	00001810 	mfhi	v1
9d002674:	afa30070 	sw	v1,112(sp)
9d002678:	03a0f021 	move	s8,sp
	//get the time the interrupt occured
    long mic = _CP0_GET_COUNT();
9d00267c:	40024800 	mfc0	v0,c0_count
9d002680:	afc20010 	sw	v0,16(s8)
    int i;
    int unuse = IC3BUF;
9d002684:	3c02bf80 	lui	v0,0xbf80
9d002688:	8c422410 	lw	v0,9232(v0)
9d00268c:	afc20018 	sw	v0,24(s8)
    //check for coreTimer overflow
    while (mic < V3.prevMic ){
9d002690:	0b4009a9 	j	9d0026a4 <No3SensorIC3+0xb4>
9d002694:	00000000 	nop
        mic = mic + 4294967295;  //largest unsigned 32bit int
9d002698:	8fc20010 	lw	v0,16(s8)
9d00269c:	2442ffff 	addiu	v0,v0,-1
9d0026a0:	afc20010 	sw	v0,16(s8)
	//get the time the interrupt occured
    long mic = _CP0_GET_COUNT();
    int i;
    int unuse = IC3BUF;
    //check for coreTimer overflow
    while (mic < V3.prevMic ){
9d0026a4:	3c02a000 	lui	v0,0xa000
9d0026a8:	24420090 	addiu	v0,v0,144
9d0026ac:	8c43002c 	lw	v1,44(v0)
9d0026b0:	8fc20010 	lw	v0,16(s8)
9d0026b4:	0043102a 	slt	v0,v0,v1
9d0026b8:	1440fff7 	bnez	v0,9d002698 <No3SensorIC3+0xa8>
9d0026bc:	00000000 	nop
        mic = mic + 4294967295;  //largest unsigned 32bit int
    }
    //shift the time into buffer
    for(i = 0; i<10; i++){
9d0026c0:	afc00014 	sw	zero,20(s8)
9d0026c4:	0b4009c3 	j	9d00270c <No3SensorIC3+0x11c>
9d0026c8:	00000000 	nop
        V3.changeTime[i] = V3.changeTime[i+1]; //shift every time to front position
9d0026cc:	8fc20014 	lw	v0,20(s8)
9d0026d0:	24430001 	addiu	v1,v0,1
9d0026d4:	3c02a000 	lui	v0,0xa000
9d0026d8:	00031880 	sll	v1,v1,0x2
9d0026dc:	24420090 	addiu	v0,v0,144
9d0026e0:	00621021 	addu	v0,v1,v0
9d0026e4:	8c430000 	lw	v1,0(v0)
9d0026e8:	3c02a000 	lui	v0,0xa000
9d0026ec:	8fc40014 	lw	a0,20(s8)
9d0026f0:	00042080 	sll	a0,a0,0x2
9d0026f4:	24420090 	addiu	v0,v0,144
9d0026f8:	00821021 	addu	v0,a0,v0
9d0026fc:	ac430000 	sw	v1,0(v0)
    //check for coreTimer overflow
    while (mic < V3.prevMic ){
        mic = mic + 4294967295;  //largest unsigned 32bit int
    }
    //shift the time into buffer
    for(i = 0; i<10; i++){
9d002700:	8fc20014 	lw	v0,20(s8)
9d002704:	24420001 	addiu	v0,v0,1
9d002708:	afc20014 	sw	v0,20(s8)
9d00270c:	8fc20014 	lw	v0,20(s8)
9d002710:	2842000a 	slti	v0,v0,10
9d002714:	1440ffed 	bnez	v0,9d0026cc <No3SensorIC3+0xdc>
9d002718:	00000000 	nop
        V3.changeTime[i] = V3.changeTime[i+1]; //shift every time to front position
    }
    V3.changeTime[10] = mic; //store the mic into the last position
9d00271c:	3c02a000 	lui	v0,0xa000
9d002720:	24420090 	addiu	v0,v0,144
9d002724:	8fc30010 	lw	v1,16(s8)
9d002728:	ac430028 	sw	v1,40(v0)
    //if the buffer is not full 
    if(V3.collected < 11){
9d00272c:	3c02a000 	lui	v0,0xa000
9d002730:	24420090 	addiu	v0,v0,144
9d002734:	8c42003c 	lw	v0,60(v0)
9d002738:	2842000b 	slti	v0,v0,11
9d00273c:	1040000a 	beqz	v0,9d002768 <No3SensorIC3+0x178>
9d002740:	00000000 	nop
        V3.collected++;
9d002744:	3c02a000 	lui	v0,0xa000
9d002748:	24420090 	addiu	v0,v0,144
9d00274c:	8c42003c 	lw	v0,60(v0)
9d002750:	24430001 	addiu	v1,v0,1
9d002754:	3c02a000 	lui	v0,0xa000
9d002758:	24420090 	addiu	v0,v0,144
9d00275c:	ac43003c 	sw	v1,60(v0)
9d002760:	0b400a31 	j	9d0028c4 <No3SensorIC3+0x2d4>
9d002764:	00000000 	nop
    }else{//when the buffer is full, check data in buffer conforms to (sync sync sweep sync sweep)
        // if the timer values match the waveform pattern when about 7 feet away from the emitter
        if ((V3.changeTime[1] - V3.changeTime[0] > 7000 * 24) && (V3.changeTime[3] - V3.changeTime[2] > 7000 * 24) && (V3.changeTime[6] - V3.changeTime[5] < 50 * 24) && (V3.changeTime[10] - V3.changeTime[9] < 50 * 24)) {
9d002768:	3c02a000 	lui	v0,0xa000
9d00276c:	24420090 	addiu	v0,v0,144
9d002770:	8c430004 	lw	v1,4(v0)
9d002774:	3c02a000 	lui	v0,0xa000
9d002778:	8c420090 	lw	v0,144(v0)
9d00277c:	00621823 	subu	v1,v1,v0
9d002780:	3c020002 	lui	v0,0x2
9d002784:	34429041 	ori	v0,v0,0x9041
9d002788:	0062102a 	slt	v0,v1,v0
9d00278c:	1440004d 	bnez	v0,9d0028c4 <No3SensorIC3+0x2d4>
9d002790:	00000000 	nop
9d002794:	3c02a000 	lui	v0,0xa000
9d002798:	24420090 	addiu	v0,v0,144
9d00279c:	8c43000c 	lw	v1,12(v0)
9d0027a0:	3c02a000 	lui	v0,0xa000
9d0027a4:	24420090 	addiu	v0,v0,144
9d0027a8:	8c420008 	lw	v0,8(v0)
9d0027ac:	00621823 	subu	v1,v1,v0
9d0027b0:	3c020002 	lui	v0,0x2
9d0027b4:	34429041 	ori	v0,v0,0x9041
9d0027b8:	0062102a 	slt	v0,v1,v0
9d0027bc:	14400041 	bnez	v0,9d0028c4 <No3SensorIC3+0x2d4>
9d0027c0:	00000000 	nop
9d0027c4:	3c02a000 	lui	v0,0xa000
9d0027c8:	24420090 	addiu	v0,v0,144
9d0027cc:	8c430018 	lw	v1,24(v0)
9d0027d0:	3c02a000 	lui	v0,0xa000
9d0027d4:	24420090 	addiu	v0,v0,144
9d0027d8:	8c420014 	lw	v0,20(v0)
9d0027dc:	00621023 	subu	v0,v1,v0
9d0027e0:	284204b0 	slti	v0,v0,1200
9d0027e4:	10400037 	beqz	v0,9d0028c4 <No3SensorIC3+0x2d4>
9d0027e8:	00000000 	nop
9d0027ec:	3c02a000 	lui	v0,0xa000
9d0027f0:	24420090 	addiu	v0,v0,144
9d0027f4:	8c430028 	lw	v1,40(v0)
9d0027f8:	3c02a000 	lui	v0,0xa000
9d0027fc:	24420090 	addiu	v0,v0,144
9d002800:	8c420024 	lw	v0,36(v0)
9d002804:	00621023 	subu	v0,v1,v0
9d002808:	284204b0 	slti	v0,v0,1200
9d00280c:	1040002d 	beqz	v0,9d0028c4 <No3SensorIC3+0x2d4>
9d002810:	00000000 	nop
            V3.horzAng = (V3.changeTime[5] - V3.changeTime[4]) * DEG_PER_CORE;
9d002814:	3c02a000 	lui	v0,0xa000
9d002818:	24420090 	addiu	v0,v0,144
9d00281c:	8c430014 	lw	v1,20(v0)
9d002820:	3c02a000 	lui	v0,0xa000
9d002824:	24420090 	addiu	v0,v0,144
9d002828:	8c420010 	lw	v0,16(v0)
9d00282c:	00621023 	subu	v0,v1,v0
9d002830:	00402021 	move	a0,v0
9d002834:	0f401dad 	jal	9d0076b4 <.LFE23>
9d002838:	00000000 	nop
9d00283c:	00401821 	move	v1,v0
9d002840:	3c029d00 	lui	v0,0x9d00
9d002844:	00602021 	move	a0,v1
9d002848:	8c457a74 	lw	a1,31348(v0)
9d00284c:	0f40188e 	jal	9d006238 <__mulsf3>
9d002850:	00000000 	nop
9d002854:	00401821 	move	v1,v0
9d002858:	3c02a000 	lui	v0,0xa000
9d00285c:	24420090 	addiu	v0,v0,144
9d002860:	ac430030 	sw	v1,48(v0)
            V3.vertAng = (V3.changeTime[9] - V3.changeTime[8]) * DEG_PER_CORE;
9d002864:	3c02a000 	lui	v0,0xa000
9d002868:	24420090 	addiu	v0,v0,144
9d00286c:	8c430024 	lw	v1,36(v0)
9d002870:	3c02a000 	lui	v0,0xa000
9d002874:	24420090 	addiu	v0,v0,144
9d002878:	8c420020 	lw	v0,32(v0)
9d00287c:	00621023 	subu	v0,v1,v0
9d002880:	00402021 	move	a0,v0
9d002884:	0f401dad 	jal	9d0076b4 <.LFE23>
9d002888:	00000000 	nop
9d00288c:	00401821 	move	v1,v0
9d002890:	3c029d00 	lui	v0,0x9d00
9d002894:	00602021 	move	a0,v1
9d002898:	8c457a74 	lw	a1,31348(v0)
9d00289c:	0f40188e 	jal	9d006238 <__mulsf3>
9d0028a0:	00000000 	nop
9d0028a4:	00401821 	move	v1,v0
9d0028a8:	3c02a000 	lui	v0,0xa000
9d0028ac:	24420090 	addiu	v0,v0,144
9d0028b0:	ac430034 	sw	v1,52(v0)
            V3.useMe = 1; 
9d0028b4:	3c02a000 	lui	v0,0xa000
9d0028b8:	24420090 	addiu	v0,v0,144
9d0028bc:	24030001 	li	v1,1
9d0028c0:	ac430038 	sw	v1,56(v0)
            // double yPos = tan((V3.horzAng - 90.0) * DEG_TO_RAD) * LIGHTHOUSEHEIGHT;
         //    sprintf(buffer,"x=%f, y= %f\r\n",xPos,yPos);
	        // NU32_WriteUART3(buffer);
        }
    }
    V3.prevMic = mic;
9d0028c4:	3c02a000 	lui	v0,0xa000
9d0028c8:	24420090 	addiu	v0,v0,144
9d0028cc:	8fc30010 	lw	v1,16(s8)
9d0028d0:	ac43002c 	sw	v1,44(v0)
    IFS0bits.IC3IF = 0; //clear the interrupt flag
9d0028d4:	3c03bf88 	lui	v1,0xbf88
9d0028d8:	8c621030 	lw	v0,4144(v1)
9d0028dc:	7c026b44 	ins	v0,zero,0xd,0x1
9d0028e0:	ac621030 	sw	v0,4144(v1)
}
9d0028e4:	03c0e821 	move	sp,s8
9d0028e8:	8fa20074 	lw	v0,116(sp)
9d0028ec:	00400013 	mtlo	v0
9d0028f0:	8fa30070 	lw	v1,112(sp)
9d0028f4:	00600011 	mthi	v1
9d0028f8:	8fbf006c 	lw	ra,108(sp)
9d0028fc:	8fbe0068 	lw	s8,104(sp)
9d002900:	8fb90064 	lw	t9,100(sp)
9d002904:	8fb80060 	lw	t8,96(sp)
9d002908:	8faf005c 	lw	t7,92(sp)
9d00290c:	8fae0058 	lw	t6,88(sp)
9d002910:	8fad0054 	lw	t5,84(sp)
9d002914:	8fac0050 	lw	t4,80(sp)
9d002918:	8fab004c 	lw	t3,76(sp)
9d00291c:	8faa0048 	lw	t2,72(sp)
9d002920:	8fa90044 	lw	t1,68(sp)
9d002924:	8fa80040 	lw	t0,64(sp)
9d002928:	8fa7003c 	lw	a3,60(sp)
9d00292c:	8fa60038 	lw	a2,56(sp)
9d002930:	8fa50034 	lw	a1,52(sp)
9d002934:	8fa40030 	lw	a0,48(sp)
9d002938:	8fa3002c 	lw	v1,44(sp)
9d00293c:	8fa20028 	lw	v0,40(sp)
9d002940:	8fa10024 	lw	at,36(sp)
9d002944:	41606000 	di
9d002948:	000000c0 	ehb
9d00294c:	8fba0084 	lw	k0,132(sp)
9d002950:	8fbb0080 	lw	k1,128(sp)
9d002954:	409a7000 	mtc0	k0,c0_epc
9d002958:	8fba007c 	lw	k0,124(sp)
9d00295c:	27bd0088 	addiu	sp,sp,136
9d002960:	409a6002 	mtc0	k0,c0_srsctl
9d002964:	41dde800 	wrpgpr	sp,sp
9d002968:	409b6000 	mtc0	k1,c0_status
9d00296c:	42000018 	eret

9d002970 <main>:


int main (){
9d002970:	27bdffe8 	addiu	sp,sp,-24
9d002974:	afbf0014 	sw	ra,20(sp)
9d002978:	afbe0010 	sw	s8,16(sp)
9d00297c:	03a0f021 	move	s8,sp
    // initialize the sensor variables
    //Sensor No.1
    V1.prevMic = 0;
9d002980:	3c02a000 	lui	v0,0xa000
9d002984:	24420050 	addiu	v0,v0,80
9d002988:	ac40002c 	sw	zero,44(v0)
    V1.horzAng = 0;
9d00298c:	3c02a000 	lui	v0,0xa000
9d002990:	24420050 	addiu	v0,v0,80
9d002994:	00001821 	move	v1,zero
9d002998:	ac430030 	sw	v1,48(v0)
    V1.vertAng = 0;
9d00299c:	3c02a000 	lui	v0,0xa000
9d0029a0:	24420050 	addiu	v0,v0,80
9d0029a4:	00001821 	move	v1,zero
9d0029a8:	ac430034 	sw	v1,52(v0)
    V1.useMe = 0;
9d0029ac:	3c02a000 	lui	v0,0xa000
9d0029b0:	24420050 	addiu	v0,v0,80
9d0029b4:	ac400038 	sw	zero,56(v0)
    V1.collected = 0;
9d0029b8:	3c02a000 	lui	v0,0xa000
9d0029bc:	24420050 	addiu	v0,v0,80
9d0029c0:	ac40003c 	sw	zero,60(v0)
    //Sensor No.2
    V2.prevMic = 0;
9d0029c4:	3c02a000 	lui	v0,0xa000
9d0029c8:	24420010 	addiu	v0,v0,16
9d0029cc:	ac40002c 	sw	zero,44(v0)
    V2.horzAng = 0;
9d0029d0:	3c02a000 	lui	v0,0xa000
9d0029d4:	24420010 	addiu	v0,v0,16
9d0029d8:	00001821 	move	v1,zero
9d0029dc:	ac430030 	sw	v1,48(v0)
    V2.vertAng = 0;
9d0029e0:	3c02a000 	lui	v0,0xa000
9d0029e4:	24420010 	addiu	v0,v0,16
9d0029e8:	00001821 	move	v1,zero
9d0029ec:	ac430034 	sw	v1,52(v0)
    V2.useMe = 0;
9d0029f0:	3c02a000 	lui	v0,0xa000
9d0029f4:	24420010 	addiu	v0,v0,16
9d0029f8:	ac400038 	sw	zero,56(v0)
    V2.collected = 0;
9d0029fc:	3c02a000 	lui	v0,0xa000
9d002a00:	24420010 	addiu	v0,v0,16
9d002a04:	ac40003c 	sw	zero,60(v0)
    //Sensor No.3
    V3.prevMic = 0;
9d002a08:	3c02a000 	lui	v0,0xa000
9d002a0c:	24420090 	addiu	v0,v0,144
9d002a10:	ac40002c 	sw	zero,44(v0)
    V3.horzAng = 0;
9d002a14:	3c02a000 	lui	v0,0xa000
9d002a18:	24420090 	addiu	v0,v0,144
9d002a1c:	00001821 	move	v1,zero
9d002a20:	ac430030 	sw	v1,48(v0)
    V3.vertAng = 0;
9d002a24:	3c02a000 	lui	v0,0xa000
9d002a28:	24420090 	addiu	v0,v0,144
9d002a2c:	00001821 	move	v1,zero
9d002a30:	ac430034 	sw	v1,52(v0)
    V3.useMe = 0;
9d002a34:	3c02a000 	lui	v0,0xa000
9d002a38:	24420090 	addiu	v0,v0,144
9d002a3c:	ac400038 	sw	zero,56(v0)
    V3.collected = 0;
9d002a40:	3c02a000 	lui	v0,0xa000
9d002a44:	24420090 	addiu	v0,v0,144
9d002a48:	ac40003c 	sw	zero,60(v0)
	NU32_Startup();
9d002a4c:	0f4014f9 	jal	9d0053e4 <NU32_Startup>
9d002a50:	00000000 	nop
	__builtin_disable_interrupts();
9d002a54:	41626000 	di	v0
9d002a58:	000000c0 	ehb
9d002a5c:	00000000 	nop
	//Sensor No.1
	TRISDbits.TRISD8 = 1; // connect the No.1 sensor's ENV to D8
9d002a60:	3c03bf88 	lui	v1,0xbf88
9d002a64:	946260c0 	lhu	v0,24768(v1)
9d002a68:	24040001 	li	a0,1
9d002a6c:	7c824204 	ins	v0,a0,0x8,0x1
9d002a70:	a46260c0 	sh	v0,24768(v1)
    IC1CONbits.ICTMR = 1; //capture the time of timer 2, but we can ignore it, 
9d002a74:	3c03bf80 	lui	v1,0xbf80
9d002a78:	94622000 	lhu	v0,8192(v1)
9d002a7c:	24040001 	li	a0,1
9d002a80:	7c8239c4 	ins	v0,a0,0x7,0x1
9d002a84:	a4622000 	sh	v0,8192(v1)
                           //because we use interrupt to store system time
    IC1CONbits.ICM = 0b110; //IC mode 6, trigger IC3 on every edge
9d002a88:	3c03bf80 	lui	v1,0xbf80
9d002a8c:	94622000 	lhu	v0,8192(v1)
9d002a90:	24040006 	li	a0,6
9d002a94:	7c821004 	ins	v0,a0,0x0,0x3
9d002a98:	a4622000 	sh	v0,8192(v1)
    IC1CONbits.FEDGE = 0;   //first capture edge is falling edge
9d002a9c:	3c03bf80 	lui	v1,0xbf80
9d002aa0:	94622000 	lhu	v0,8192(v1)
9d002aa4:	7c024a44 	ins	v0,zero,0x9,0x1
9d002aa8:	a4622000 	sh	v0,8192(v1)
    IC1CONbits.ICI = 0;     //interrupt on every edge
9d002aac:	3c03bf80 	lui	v1,0xbf80
9d002ab0:	94622000 	lhu	v0,8192(v1)
9d002ab4:	7c023144 	ins	v0,zero,0x5,0x2
9d002ab8:	a4622000 	sh	v0,8192(v1)
    IC1CONbits.ON = 1; //trun IC1 on
9d002abc:	3c03bf80 	lui	v1,0xbf80
9d002ac0:	94622000 	lhu	v0,8192(v1)
9d002ac4:	24040001 	li	a0,1
9d002ac8:	7c827bc4 	ins	v0,a0,0xf,0x1
9d002acc:	a4622000 	sh	v0,8192(v1)
    IFS0bits.IC1IF = 0; //clear intterupt falg
9d002ad0:	3c03bf88 	lui	v1,0xbf88
9d002ad4:	8c621030 	lw	v0,4144(v1)
9d002ad8:	7c022944 	ins	v0,zero,0x5,0x1
9d002adc:	ac621030 	sw	v0,4144(v1)
    IPC1bits.IC1IP = 3; //interrupt priority 3
9d002ae0:	3c03bf88 	lui	v1,0xbf88
9d002ae4:	8c6210a0 	lw	v0,4256(v1)
9d002ae8:	24040003 	li	a0,3
9d002aec:	7c826284 	ins	v0,a0,0xa,0x3
9d002af0:	ac6210a0 	sw	v0,4256(v1)
    IEC0bits.IC1IE = 1; //enable IC1 interrupt
9d002af4:	3c03bf88 	lui	v1,0xbf88
9d002af8:	8c621060 	lw	v0,4192(v1)
9d002afc:	24040001 	li	a0,1
9d002b00:	7c822944 	ins	v0,a0,0x5,0x1
9d002b04:	ac621060 	sw	v0,4192(v1)
    //Sensor No.2
	TRISDbits.TRISD9 = 1; // connect the No.1 sensor's ENV to D8
9d002b08:	3c03bf88 	lui	v1,0xbf88
9d002b0c:	946260c0 	lhu	v0,24768(v1)
9d002b10:	24040001 	li	a0,1
9d002b14:	7c824a44 	ins	v0,a0,0x9,0x1
9d002b18:	a46260c0 	sh	v0,24768(v1)
    IC2CONbits.ICTMR = 1; //capture the time of timer 2, but we can ignore it, 
9d002b1c:	3c03bf80 	lui	v1,0xbf80
9d002b20:	94622200 	lhu	v0,8704(v1)
9d002b24:	24040001 	li	a0,1
9d002b28:	7c8239c4 	ins	v0,a0,0x7,0x1
9d002b2c:	a4622200 	sh	v0,8704(v1)
                           //because we use interrupt to store system time
    IC2CONbits.ICM = 0b110; //IC mode 6, trigger IC3 on every edge
9d002b30:	3c03bf80 	lui	v1,0xbf80
9d002b34:	94622200 	lhu	v0,8704(v1)
9d002b38:	24040006 	li	a0,6
9d002b3c:	7c821004 	ins	v0,a0,0x0,0x3
9d002b40:	a4622200 	sh	v0,8704(v1)
    IC2CONbits.FEDGE = 0;   //first capture edge is falling edge
9d002b44:	3c03bf80 	lui	v1,0xbf80
9d002b48:	94622200 	lhu	v0,8704(v1)
9d002b4c:	7c024a44 	ins	v0,zero,0x9,0x1
9d002b50:	a4622200 	sh	v0,8704(v1)
    IC2CONbits.ICI = 0;     //interrupt on every edge
9d002b54:	3c03bf80 	lui	v1,0xbf80
9d002b58:	94622200 	lhu	v0,8704(v1)
9d002b5c:	7c023144 	ins	v0,zero,0x5,0x2
9d002b60:	a4622200 	sh	v0,8704(v1)
    IC2CONbits.ON = 1; //trun IC2 on
9d002b64:	3c03bf80 	lui	v1,0xbf80
9d002b68:	94622200 	lhu	v0,8704(v1)
9d002b6c:	24040001 	li	a0,1
9d002b70:	7c827bc4 	ins	v0,a0,0xf,0x1
9d002b74:	a4622200 	sh	v0,8704(v1)
    IFS0bits.IC2IF = 0; //clear intterupt falg
9d002b78:	3c03bf88 	lui	v1,0xbf88
9d002b7c:	8c621030 	lw	v0,4144(v1)
9d002b80:	7c024a44 	ins	v0,zero,0x9,0x1
9d002b84:	ac621030 	sw	v0,4144(v1)
    IPC2bits.IC2IP = 4; //interrupt priority 4
9d002b88:	3c03bf88 	lui	v1,0xbf88
9d002b8c:	8c6210b0 	lw	v0,4272(v1)
9d002b90:	24040004 	li	a0,4
9d002b94:	7c826284 	ins	v0,a0,0xa,0x3
9d002b98:	ac6210b0 	sw	v0,4272(v1)
    IEC0bits.IC2IE = 1; //enable IC2 interrupt
9d002b9c:	3c03bf88 	lui	v1,0xbf88
9d002ba0:	8c621060 	lw	v0,4192(v1)
9d002ba4:	24040001 	li	a0,1
9d002ba8:	7c824a44 	ins	v0,a0,0x9,0x1
9d002bac:	ac621060 	sw	v0,4192(v1)
	//Sensor No.3
    TRISDbits.TRISD10 = 1; // connect the No.3 sensor's ENV to D10
9d002bb0:	3c03bf88 	lui	v1,0xbf88
9d002bb4:	946260c0 	lhu	v0,24768(v1)
9d002bb8:	24040001 	li	a0,1
9d002bbc:	7c825284 	ins	v0,a0,0xa,0x1
9d002bc0:	a46260c0 	sh	v0,24768(v1)
    IC3CONbits.ICTMR = 1; //capture the time of timer 2, but we can ignore it, 
9d002bc4:	3c03bf80 	lui	v1,0xbf80
9d002bc8:	94622400 	lhu	v0,9216(v1)
9d002bcc:	24040001 	li	a0,1
9d002bd0:	7c8239c4 	ins	v0,a0,0x7,0x1
9d002bd4:	a4622400 	sh	v0,9216(v1)
                           //because we use interrupt to store system time
    IC3CONbits.ICM = 0b110; //IC mode 6, trigger IC3 on every edge
9d002bd8:	3c03bf80 	lui	v1,0xbf80
9d002bdc:	94622400 	lhu	v0,9216(v1)
9d002be0:	24040006 	li	a0,6
9d002be4:	7c821004 	ins	v0,a0,0x0,0x3
9d002be8:	a4622400 	sh	v0,9216(v1)
    IC3CONbits.FEDGE = 0;   //first capture edge is falling edge
9d002bec:	3c03bf80 	lui	v1,0xbf80
9d002bf0:	94622400 	lhu	v0,9216(v1)
9d002bf4:	7c024a44 	ins	v0,zero,0x9,0x1
9d002bf8:	a4622400 	sh	v0,9216(v1)
    IC3CONbits.ICI = 0;     //interrupt on every edge
9d002bfc:	3c03bf80 	lui	v1,0xbf80
9d002c00:	94622400 	lhu	v0,9216(v1)
9d002c04:	7c023144 	ins	v0,zero,0x5,0x2
9d002c08:	a4622400 	sh	v0,9216(v1)
    IC3CONbits.ON = 1; //trun IC3 on
9d002c0c:	3c03bf80 	lui	v1,0xbf80
9d002c10:	94622400 	lhu	v0,9216(v1)
9d002c14:	24040001 	li	a0,1
9d002c18:	7c827bc4 	ins	v0,a0,0xf,0x1
9d002c1c:	a4622400 	sh	v0,9216(v1)
    IFS0bits.IC3IF = 0; //clear intterupt falg
9d002c20:	3c03bf88 	lui	v1,0xbf88
9d002c24:	8c621030 	lw	v0,4144(v1)
9d002c28:	7c026b44 	ins	v0,zero,0xd,0x1
9d002c2c:	ac621030 	sw	v0,4144(v1)
    IPC3bits.IC3IP = 5; //interrupt priority 5
9d002c30:	3c03bf88 	lui	v1,0xbf88
9d002c34:	8c6210c0 	lw	v0,4288(v1)
9d002c38:	24040005 	li	a0,5
9d002c3c:	7c826284 	ins	v0,a0,0xa,0x3
9d002c40:	ac6210c0 	sw	v0,4288(v1)
    IEC0bits.IC3IE = 1; //enable IC3 interrupt
9d002c44:	3c03bf88 	lui	v1,0xbf88
9d002c48:	8c621060 	lw	v0,4192(v1)
9d002c4c:	24040001 	li	a0,1
9d002c50:	7c826b44 	ins	v0,a0,0xd,0x1
9d002c54:	ac621060 	sw	v0,4192(v1)
    __builtin_enable_interrupts();
9d002c58:	41626020 	ei	v0
    while (1){
    	;
    }
9d002c5c:	0b400b17 	j	9d002c5c <main+0x2ec>
9d002c60:	00000000 	nop

9d002c64 <gelim>:
9d002c64:	27bdffc8 	addiu	sp,sp,-56
9d002c68:	afbf0034 	sw	ra,52(sp)
9d002c6c:	afbe0030 	sw	s8,48(sp)
9d002c70:	afb1002c 	sw	s1,44(sp)
9d002c74:	afb00028 	sw	s0,40(sp)
9d002c78:	03a0f021 	move	s8,sp
9d002c7c:	afc40038 	sw	a0,56(s8)
9d002c80:	afc5003c 	sw	a1,60(s8)
9d002c84:	afc60040 	sw	a2,64(s8)
9d002c88:	afc70044 	sw	a3,68(s8)
9d002c8c:	afc00014 	sw	zero,20(s8)
9d002c90:	0b400bef 	j	9d002fbc <gelim+0x358>
9d002c94:	00000000 	nop
9d002c98:	8fc20014 	lw	v0,20(s8)
9d002c9c:	00021080 	sll	v0,v0,0x2
9d002ca0:	8fc30038 	lw	v1,56(s8)
9d002ca4:	00621021 	addu	v0,v1,v0
9d002ca8:	8c430000 	lw	v1,0(v0)
9d002cac:	8fc20014 	lw	v0,20(s8)
9d002cb0:	00021080 	sll	v0,v0,0x2
9d002cb4:	00621021 	addu	v0,v1,v0
9d002cb8:	8c420000 	lw	v0,0(v0)
9d002cbc:	afc20010 	sw	v0,16(s8)
9d002cc0:	8fc40010 	lw	a0,16(s8)
9d002cc4:	00002821 	move	a1,zero
9d002cc8:	0f401c46 	jal	9d007118 <__eqsf2>
9d002ccc:	00000000 	nop
9d002cd0:	14400055 	bnez	v0,9d002e28 <gelim+0x1c4>
9d002cd4:	00000000 	nop
9d002cd8:	8fc20014 	lw	v0,20(s8)
9d002cdc:	24420001 	addiu	v0,v0,1
9d002ce0:	afc20018 	sw	v0,24(s8)
9d002ce4:	0b400b50 	j	9d002d40 <gelim+0xdc>
9d002ce8:	00000000 	nop
9d002cec:	8fc20018 	lw	v0,24(s8)
9d002cf0:	00021080 	sll	v0,v0,0x2
9d002cf4:	8fc30038 	lw	v1,56(s8)
9d002cf8:	00621021 	addu	v0,v1,v0
9d002cfc:	8c430000 	lw	v1,0(v0)
9d002d00:	8fc20014 	lw	v0,20(s8)
9d002d04:	00021080 	sll	v0,v0,0x2
9d002d08:	00621021 	addu	v0,v1,v0
9d002d0c:	8c420000 	lw	v0,0(v0)
9d002d10:	afc20010 	sw	v0,16(s8)
9d002d14:	8fc40010 	lw	a0,16(s8)
9d002d18:	00002821 	move	a1,zero
9d002d1c:	0f401c46 	jal	9d007118 <__eqsf2>
9d002d20:	00000000 	nop
9d002d24:	10400003 	beqz	v0,9d002d34 <gelim+0xd0>
9d002d28:	00000000 	nop
9d002d2c:	0b400b55 	j	9d002d54 <gelim+0xf0>
9d002d30:	00000000 	nop
9d002d34:	8fc20018 	lw	v0,24(s8)
9d002d38:	24420001 	addiu	v0,v0,1
9d002d3c:	afc20018 	sw	v0,24(s8)
9d002d40:	8fc30018 	lw	v1,24(s8)
9d002d44:	8fc20044 	lw	v0,68(s8)
9d002d48:	0062102a 	slt	v0,v1,v0
9d002d4c:	1440ffe7 	bnez	v0,9d002cec <gelim+0x88>
9d002d50:	00000000 	nop
9d002d54:	8fc40010 	lw	a0,16(s8)
9d002d58:	00002821 	move	a1,zero
9d002d5c:	0f401c46 	jal	9d007118 <__eqsf2>
9d002d60:	00000000 	nop
9d002d64:	14400004 	bnez	v0,9d002d78 <gelim+0x114>
9d002d68:	00000000 	nop
9d002d6c:	24020001 	li	v0,1
9d002d70:	0b400c4e 	j	9d003138 <gelim+0x4d4>
9d002d74:	00000000 	nop
9d002d78:	8fc20018 	lw	v0,24(s8)
9d002d7c:	00021080 	sll	v0,v0,0x2
9d002d80:	8fc30038 	lw	v1,56(s8)
9d002d84:	00621021 	addu	v0,v1,v0
9d002d88:	8c420000 	lw	v0,0(v0)
9d002d8c:	afc20020 	sw	v0,32(s8)
9d002d90:	8fc20018 	lw	v0,24(s8)
9d002d94:	00021080 	sll	v0,v0,0x2
9d002d98:	8fc30038 	lw	v1,56(s8)
9d002d9c:	00621021 	addu	v0,v1,v0
9d002da0:	8fc30014 	lw	v1,20(s8)
9d002da4:	00031880 	sll	v1,v1,0x2
9d002da8:	8fc40038 	lw	a0,56(s8)
9d002dac:	00831821 	addu	v1,a0,v1
9d002db0:	8c630000 	lw	v1,0(v1)
9d002db4:	ac430000 	sw	v1,0(v0)
9d002db8:	8fc20014 	lw	v0,20(s8)
9d002dbc:	00021080 	sll	v0,v0,0x2
9d002dc0:	8fc30038 	lw	v1,56(s8)
9d002dc4:	00621021 	addu	v0,v1,v0
9d002dc8:	8fc30020 	lw	v1,32(s8)
9d002dcc:	ac430000 	sw	v1,0(v0)
9d002dd0:	8fc20018 	lw	v0,24(s8)
9d002dd4:	00021080 	sll	v0,v0,0x2
9d002dd8:	8fc3003c 	lw	v1,60(s8)
9d002ddc:	00621021 	addu	v0,v1,v0
9d002de0:	8c420000 	lw	v0,0(v0)
9d002de4:	afc20024 	sw	v0,36(s8)
9d002de8:	8fc20018 	lw	v0,24(s8)
9d002dec:	00021080 	sll	v0,v0,0x2
9d002df0:	8fc3003c 	lw	v1,60(s8)
9d002df4:	00621021 	addu	v0,v1,v0
9d002df8:	8fc30014 	lw	v1,20(s8)
9d002dfc:	00031880 	sll	v1,v1,0x2
9d002e00:	8fc4003c 	lw	a0,60(s8)
9d002e04:	00831821 	addu	v1,a0,v1
9d002e08:	8c630000 	lw	v1,0(v1)
9d002e0c:	ac430000 	sw	v1,0(v0)
9d002e10:	8fc20014 	lw	v0,20(s8)
9d002e14:	00021080 	sll	v0,v0,0x2
9d002e18:	8fc3003c 	lw	v1,60(s8)
9d002e1c:	00621021 	addu	v0,v1,v0
9d002e20:	8fc30024 	lw	v1,36(s8)
9d002e24:	ac430000 	sw	v1,0(v0)
9d002e28:	8fc20014 	lw	v0,20(s8)
9d002e2c:	24420001 	addiu	v0,v0,1
9d002e30:	afc2001c 	sw	v0,28(s8)
9d002e34:	0b400be7 	j	9d002f9c <gelim+0x338>
9d002e38:	00000000 	nop
9d002e3c:	8fc2001c 	lw	v0,28(s8)
9d002e40:	00021080 	sll	v0,v0,0x2
9d002e44:	8fc30038 	lw	v1,56(s8)
9d002e48:	00621021 	addu	v0,v1,v0
9d002e4c:	8c430000 	lw	v1,0(v0)
9d002e50:	8fc20014 	lw	v0,20(s8)
9d002e54:	00021080 	sll	v0,v0,0x2
9d002e58:	00621021 	addu	v0,v1,v0
9d002e5c:	8c420000 	lw	v0,0(v0)
9d002e60:	00402021 	move	a0,v0
9d002e64:	8fc50010 	lw	a1,16(s8)
9d002e68:	0f401781 	jal	9d005e04 <__divsf3>
9d002e6c:	00000000 	nop
9d002e70:	afc20024 	sw	v0,36(s8)
9d002e74:	8fc20014 	lw	v0,20(s8)
9d002e78:	24420001 	addiu	v0,v0,1
9d002e7c:	afc20018 	sw	v0,24(s8)
9d002e80:	0b400bc8 	j	9d002f20 <gelim+0x2bc>
9d002e84:	00000000 	nop
9d002e88:	8fc2001c 	lw	v0,28(s8)
9d002e8c:	00021080 	sll	v0,v0,0x2
9d002e90:	8fc30038 	lw	v1,56(s8)
9d002e94:	00621021 	addu	v0,v1,v0
9d002e98:	8c430000 	lw	v1,0(v0)
9d002e9c:	8fc20018 	lw	v0,24(s8)
9d002ea0:	00021080 	sll	v0,v0,0x2
9d002ea4:	00628021 	addu	s0,v1,v0
9d002ea8:	8fc2001c 	lw	v0,28(s8)
9d002eac:	00021080 	sll	v0,v0,0x2
9d002eb0:	8fc30038 	lw	v1,56(s8)
9d002eb4:	00621021 	addu	v0,v1,v0
9d002eb8:	8c430000 	lw	v1,0(v0)
9d002ebc:	8fc20018 	lw	v0,24(s8)
9d002ec0:	00021080 	sll	v0,v0,0x2
9d002ec4:	00621021 	addu	v0,v1,v0
9d002ec8:	8c510000 	lw	s1,0(v0)
9d002ecc:	8fc20014 	lw	v0,20(s8)
9d002ed0:	00021080 	sll	v0,v0,0x2
9d002ed4:	8fc30038 	lw	v1,56(s8)
9d002ed8:	00621021 	addu	v0,v1,v0
9d002edc:	8c430000 	lw	v1,0(v0)
9d002ee0:	8fc20018 	lw	v0,24(s8)
9d002ee4:	00021080 	sll	v0,v0,0x2
9d002ee8:	00621021 	addu	v0,v1,v0
9d002eec:	8c420000 	lw	v0,0(v0)
9d002ef0:	00402021 	move	a0,v0
9d002ef4:	8fc50024 	lw	a1,36(s8)
9d002ef8:	0f40188e 	jal	9d006238 <__mulsf3>
9d002efc:	00000000 	nop
9d002f00:	02202021 	move	a0,s1
9d002f04:	00402821 	move	a1,v0
9d002f08:	0f401653 	jal	9d00594c <__subsf3>
9d002f0c:	00000000 	nop
9d002f10:	ae020000 	sw	v0,0(s0)
9d002f14:	8fc20018 	lw	v0,24(s8)
9d002f18:	24420001 	addiu	v0,v0,1
9d002f1c:	afc20018 	sw	v0,24(s8)
9d002f20:	8fc30018 	lw	v1,24(s8)
9d002f24:	8fc20044 	lw	v0,68(s8)
9d002f28:	0062102a 	slt	v0,v1,v0
9d002f2c:	1440ffd6 	bnez	v0,9d002e88 <gelim+0x224>
9d002f30:	00000000 	nop
9d002f34:	8fc2001c 	lw	v0,28(s8)
9d002f38:	00021080 	sll	v0,v0,0x2
9d002f3c:	8fc3003c 	lw	v1,60(s8)
9d002f40:	00628021 	addu	s0,v1,v0
9d002f44:	8fc2001c 	lw	v0,28(s8)
9d002f48:	00021080 	sll	v0,v0,0x2
9d002f4c:	8fc3003c 	lw	v1,60(s8)
9d002f50:	00621021 	addu	v0,v1,v0
9d002f54:	8c510000 	lw	s1,0(v0)
9d002f58:	8fc20014 	lw	v0,20(s8)
9d002f5c:	00021080 	sll	v0,v0,0x2
9d002f60:	8fc3003c 	lw	v1,60(s8)
9d002f64:	00621021 	addu	v0,v1,v0
9d002f68:	8c420000 	lw	v0,0(v0)
9d002f6c:	00402021 	move	a0,v0
9d002f70:	8fc50024 	lw	a1,36(s8)
9d002f74:	0f40188e 	jal	9d006238 <__mulsf3>
9d002f78:	00000000 	nop
9d002f7c:	02202021 	move	a0,s1
9d002f80:	00402821 	move	a1,v0
9d002f84:	0f401653 	jal	9d00594c <__subsf3>
9d002f88:	00000000 	nop
9d002f8c:	ae020000 	sw	v0,0(s0)
9d002f90:	8fc2001c 	lw	v0,28(s8)
9d002f94:	24420001 	addiu	v0,v0,1
9d002f98:	afc2001c 	sw	v0,28(s8)
9d002f9c:	8fc3001c 	lw	v1,28(s8)
9d002fa0:	8fc20044 	lw	v0,68(s8)
9d002fa4:	0062102a 	slt	v0,v1,v0
9d002fa8:	1440ffa4 	bnez	v0,9d002e3c <gelim+0x1d8>
9d002fac:	00000000 	nop
9d002fb0:	8fc20014 	lw	v0,20(s8)
9d002fb4:	24420001 	addiu	v0,v0,1
9d002fb8:	afc20014 	sw	v0,20(s8)
9d002fbc:	8fc30014 	lw	v1,20(s8)
9d002fc0:	8fc20044 	lw	v0,68(s8)
9d002fc4:	0062102a 	slt	v0,v1,v0
9d002fc8:	1440ff33 	bnez	v0,9d002c98 <gelim+0x34>
9d002fcc:	00000000 	nop
9d002fd0:	8fc20044 	lw	v0,68(s8)
9d002fd4:	2442ffff 	addiu	v0,v0,-1
9d002fd8:	afc20014 	sw	v0,20(s8)
9d002fdc:	0b400c4a 	j	9d003128 <gelim+0x4c4>
9d002fe0:	00000000 	nop
9d002fe4:	8fc20014 	lw	v0,20(s8)
9d002fe8:	00021080 	sll	v0,v0,0x2
9d002fec:	8fc30040 	lw	v1,64(s8)
9d002ff0:	00621021 	addu	v0,v1,v0
9d002ff4:	8fc30014 	lw	v1,20(s8)
9d002ff8:	00031880 	sll	v1,v1,0x2
9d002ffc:	8fc4003c 	lw	a0,60(s8)
9d003000:	00831821 	addu	v1,a0,v1
9d003004:	8c630000 	lw	v1,0(v1)
9d003008:	ac430000 	sw	v1,0(v0)
9d00300c:	8fc20044 	lw	v0,68(s8)
9d003010:	2442ffff 	addiu	v0,v0,-1
9d003014:	afc20018 	sw	v0,24(s8)
9d003018:	0b400c2b 	j	9d0030ac <gelim+0x448>
9d00301c:	00000000 	nop
9d003020:	8fc20014 	lw	v0,20(s8)
9d003024:	00021080 	sll	v0,v0,0x2
9d003028:	8fc30040 	lw	v1,64(s8)
9d00302c:	00628021 	addu	s0,v1,v0
9d003030:	8fc20014 	lw	v0,20(s8)
9d003034:	00021080 	sll	v0,v0,0x2
9d003038:	8fc30040 	lw	v1,64(s8)
9d00303c:	00621021 	addu	v0,v1,v0
9d003040:	8c510000 	lw	s1,0(v0)
9d003044:	8fc20014 	lw	v0,20(s8)
9d003048:	00021080 	sll	v0,v0,0x2
9d00304c:	8fc30038 	lw	v1,56(s8)
9d003050:	00621021 	addu	v0,v1,v0
9d003054:	8c430000 	lw	v1,0(v0)
9d003058:	8fc20018 	lw	v0,24(s8)
9d00305c:	00021080 	sll	v0,v0,0x2
9d003060:	00621021 	addu	v0,v1,v0
9d003064:	8c430000 	lw	v1,0(v0)
9d003068:	8fc20018 	lw	v0,24(s8)
9d00306c:	00021080 	sll	v0,v0,0x2
9d003070:	8fc40040 	lw	a0,64(s8)
9d003074:	00821021 	addu	v0,a0,v0
9d003078:	8c420000 	lw	v0,0(v0)
9d00307c:	00602021 	move	a0,v1
9d003080:	00402821 	move	a1,v0
9d003084:	0f40188e 	jal	9d006238 <__mulsf3>
9d003088:	00000000 	nop
9d00308c:	02202021 	move	a0,s1
9d003090:	00402821 	move	a1,v0
9d003094:	0f401653 	jal	9d00594c <__subsf3>
9d003098:	00000000 	nop
9d00309c:	ae020000 	sw	v0,0(s0)
9d0030a0:	8fc20018 	lw	v0,24(s8)
9d0030a4:	2442ffff 	addiu	v0,v0,-1
9d0030a8:	afc20018 	sw	v0,24(s8)
9d0030ac:	8fc30018 	lw	v1,24(s8)
9d0030b0:	8fc20014 	lw	v0,20(s8)
9d0030b4:	0043102a 	slt	v0,v0,v1
9d0030b8:	1440ffd9 	bnez	v0,9d003020 <gelim+0x3bc>
9d0030bc:	00000000 	nop
9d0030c0:	8fc20014 	lw	v0,20(s8)
9d0030c4:	00021080 	sll	v0,v0,0x2
9d0030c8:	8fc30040 	lw	v1,64(s8)
9d0030cc:	00628021 	addu	s0,v1,v0
9d0030d0:	8fc20014 	lw	v0,20(s8)
9d0030d4:	00021080 	sll	v0,v0,0x2
9d0030d8:	8fc30040 	lw	v1,64(s8)
9d0030dc:	00621021 	addu	v0,v1,v0
9d0030e0:	8c430000 	lw	v1,0(v0)
9d0030e4:	8fc20014 	lw	v0,20(s8)
9d0030e8:	00021080 	sll	v0,v0,0x2
9d0030ec:	8fc40038 	lw	a0,56(s8)
9d0030f0:	00821021 	addu	v0,a0,v0
9d0030f4:	8c440000 	lw	a0,0(v0)
9d0030f8:	8fc20014 	lw	v0,20(s8)
9d0030fc:	00021080 	sll	v0,v0,0x2
9d003100:	00821021 	addu	v0,a0,v0
9d003104:	8c420000 	lw	v0,0(v0)
9d003108:	00602021 	move	a0,v1
9d00310c:	00402821 	move	a1,v0
9d003110:	0f401781 	jal	9d005e04 <__divsf3>
9d003114:	00000000 	nop
9d003118:	ae020000 	sw	v0,0(s0)
9d00311c:	8fc20014 	lw	v0,20(s8)
9d003120:	2442ffff 	addiu	v0,v0,-1
9d003124:	afc20014 	sw	v0,20(s8)
9d003128:	8fc20014 	lw	v0,20(s8)
9d00312c:	0441ffad 	bgez	v0,9d002fe4 <gelim+0x380>
9d003130:	00000000 	nop
9d003134:	00001021 	move	v0,zero
9d003138:	03c0e821 	move	sp,s8
9d00313c:	8fbf0034 	lw	ra,52(sp)
9d003140:	8fbe0030 	lw	s8,48(sp)
9d003144:	8fb1002c 	lw	s1,44(sp)
9d003148:	8fb00028 	lw	s0,40(sp)
9d00314c:	27bd0038 	addiu	sp,sp,56
9d003150:	03e00008 	jr	ra
9d003154:	00000000 	nop

9d003158 <f>:
9d003158:	27bdffe0 	addiu	sp,sp,-32
9d00315c:	afbf001c 	sw	ra,28(sp)
9d003160:	afbe0018 	sw	s8,24(sp)
9d003164:	afb10014 	sw	s1,20(sp)
9d003168:	afb00010 	sw	s0,16(sp)
9d00316c:	03a0f021 	move	s8,sp
9d003170:	afc40020 	sw	a0,32(s8)
9d003174:	afc50024 	sw	a1,36(s8)
9d003178:	afc60028 	sw	a2,40(s8)
9d00317c:	afc7002c 	sw	a3,44(s8)
9d003180:	8fc20020 	lw	v0,32(s8)
9d003184:	8c430000 	lw	v1,0(v0)
9d003188:	3c029d00 	lui	v0,0x9d00
9d00318c:	8c427b24 	lw	v0,31524(v0)
9d003190:	00602021 	move	a0,v1
9d003194:	00402821 	move	a1,v0
9d003198:	0f401968 	jal	9d0065a0 <powf>
9d00319c:	00000000 	nop
9d0031a0:	00408021 	move	s0,v0
9d0031a4:	8fc20020 	lw	v0,32(s8)
9d0031a8:	24420004 	addiu	v0,v0,4
9d0031ac:	8c430000 	lw	v1,0(v0)
9d0031b0:	3c029d00 	lui	v0,0x9d00
9d0031b4:	8c427b24 	lw	v0,31524(v0)
9d0031b8:	00602021 	move	a0,v1
9d0031bc:	00402821 	move	a1,v0
9d0031c0:	0f401968 	jal	9d0065a0 <powf>
9d0031c4:	00000000 	nop
9d0031c8:	02002021 	move	a0,s0
9d0031cc:	00402821 	move	a1,v0
9d0031d0:	0f401655 	jal	9d005954 <__addsf3>
9d0031d4:	00000000 	nop
9d0031d8:	00408021 	move	s0,v0
9d0031dc:	8fc20020 	lw	v0,32(s8)
9d0031e0:	8c420000 	lw	v0,0(v0)
9d0031e4:	00402021 	move	a0,v0
9d0031e8:	00402821 	move	a1,v0
9d0031ec:	0f401655 	jal	9d005954 <__addsf3>
9d0031f0:	00000000 	nop
9d0031f4:	00401821 	move	v1,v0
9d0031f8:	8fc20020 	lw	v0,32(s8)
9d0031fc:	24420004 	addiu	v0,v0,4
9d003200:	8c420000 	lw	v0,0(v0)
9d003204:	00602021 	move	a0,v1
9d003208:	00402821 	move	a1,v0
9d00320c:	0f40188e 	jal	9d006238 <__mulsf3>
9d003210:	00000000 	nop
9d003214:	00402021 	move	a0,v0
9d003218:	8fc50034 	lw	a1,52(s8)
9d00321c:	0f40188e 	jal	9d006238 <__mulsf3>
9d003220:	00000000 	nop
9d003224:	02002021 	move	a0,s0
9d003228:	00402821 	move	a1,v0
9d00322c:	0f401653 	jal	9d00594c <__subsf3>
9d003230:	00000000 	nop
9d003234:	00408021 	move	s0,v0
9d003238:	3c029d00 	lui	v0,0x9d00
9d00323c:	8c427b24 	lw	v0,31524(v0)
9d003240:	8fc40028 	lw	a0,40(s8)
9d003244:	00402821 	move	a1,v0
9d003248:	0f401968 	jal	9d0065a0 <powf>
9d00324c:	00000000 	nop
9d003250:	02002021 	move	a0,s0
9d003254:	00402821 	move	a1,v0
9d003258:	0f401653 	jal	9d00594c <__subsf3>
9d00325c:	00000000 	nop
9d003260:	00401821 	move	v1,v0
9d003264:	8fc20024 	lw	v0,36(s8)
9d003268:	ac430000 	sw	v1,0(v0)
9d00326c:	8fc20024 	lw	v0,36(s8)
9d003270:	24500004 	addiu	s0,v0,4
9d003274:	8fc20020 	lw	v0,32(s8)
9d003278:	24420004 	addiu	v0,v0,4
9d00327c:	8c430000 	lw	v1,0(v0)
9d003280:	3c029d00 	lui	v0,0x9d00
9d003284:	8c427b24 	lw	v0,31524(v0)
9d003288:	00602021 	move	a0,v1
9d00328c:	00402821 	move	a1,v0
9d003290:	0f401968 	jal	9d0065a0 <powf>
9d003294:	00000000 	nop
9d003298:	00408821 	move	s1,v0
9d00329c:	8fc20020 	lw	v0,32(s8)
9d0032a0:	24420008 	addiu	v0,v0,8
9d0032a4:	8c430000 	lw	v1,0(v0)
9d0032a8:	3c029d00 	lui	v0,0x9d00
9d0032ac:	8c427b24 	lw	v0,31524(v0)
9d0032b0:	00602021 	move	a0,v1
9d0032b4:	00402821 	move	a1,v0
9d0032b8:	0f401968 	jal	9d0065a0 <powf>
9d0032bc:	00000000 	nop
9d0032c0:	02202021 	move	a0,s1
9d0032c4:	00402821 	move	a1,v0
9d0032c8:	0f401655 	jal	9d005954 <__addsf3>
9d0032cc:	00000000 	nop
9d0032d0:	00408821 	move	s1,v0
9d0032d4:	8fc20020 	lw	v0,32(s8)
9d0032d8:	24420004 	addiu	v0,v0,4
9d0032dc:	8c420000 	lw	v0,0(v0)
9d0032e0:	00402021 	move	a0,v0
9d0032e4:	00402821 	move	a1,v0
9d0032e8:	0f401655 	jal	9d005954 <__addsf3>
9d0032ec:	00000000 	nop
9d0032f0:	00401821 	move	v1,v0
9d0032f4:	8fc20020 	lw	v0,32(s8)
9d0032f8:	24420008 	addiu	v0,v0,8
9d0032fc:	8c420000 	lw	v0,0(v0)
9d003300:	00602021 	move	a0,v1
9d003304:	00402821 	move	a1,v0
9d003308:	0f40188e 	jal	9d006238 <__mulsf3>
9d00330c:	00000000 	nop
9d003310:	00402021 	move	a0,v0
9d003314:	8fc50038 	lw	a1,56(s8)
9d003318:	0f40188e 	jal	9d006238 <__mulsf3>
9d00331c:	00000000 	nop
9d003320:	02202021 	move	a0,s1
9d003324:	00402821 	move	a1,v0
9d003328:	0f401653 	jal	9d00594c <__subsf3>
9d00332c:	00000000 	nop
9d003330:	00408821 	move	s1,v0
9d003334:	3c029d00 	lui	v0,0x9d00
9d003338:	8c427b24 	lw	v0,31524(v0)
9d00333c:	8fc4002c 	lw	a0,44(s8)
9d003340:	00402821 	move	a1,v0
9d003344:	0f401968 	jal	9d0065a0 <powf>
9d003348:	00000000 	nop
9d00334c:	02202021 	move	a0,s1
9d003350:	00402821 	move	a1,v0
9d003354:	0f401653 	jal	9d00594c <__subsf3>
9d003358:	00000000 	nop
9d00335c:	ae020000 	sw	v0,0(s0)
9d003360:	8fc20024 	lw	v0,36(s8)
9d003364:	24500008 	addiu	s0,v0,8
9d003368:	8fc20020 	lw	v0,32(s8)
9d00336c:	8c430000 	lw	v1,0(v0)
9d003370:	3c029d00 	lui	v0,0x9d00
9d003374:	8c427b24 	lw	v0,31524(v0)
9d003378:	00602021 	move	a0,v1
9d00337c:	00402821 	move	a1,v0
9d003380:	0f401968 	jal	9d0065a0 <powf>
9d003384:	00000000 	nop
9d003388:	00408821 	move	s1,v0
9d00338c:	8fc20020 	lw	v0,32(s8)
9d003390:	24420008 	addiu	v0,v0,8
9d003394:	8c430000 	lw	v1,0(v0)
9d003398:	3c029d00 	lui	v0,0x9d00
9d00339c:	8c427b24 	lw	v0,31524(v0)
9d0033a0:	00602021 	move	a0,v1
9d0033a4:	00402821 	move	a1,v0
9d0033a8:	0f401968 	jal	9d0065a0 <powf>
9d0033ac:	00000000 	nop
9d0033b0:	02202021 	move	a0,s1
9d0033b4:	00402821 	move	a1,v0
9d0033b8:	0f401655 	jal	9d005954 <__addsf3>
9d0033bc:	00000000 	nop
9d0033c0:	00408821 	move	s1,v0
9d0033c4:	8fc20020 	lw	v0,32(s8)
9d0033c8:	8c420000 	lw	v0,0(v0)
9d0033cc:	00402021 	move	a0,v0
9d0033d0:	00402821 	move	a1,v0
9d0033d4:	0f401655 	jal	9d005954 <__addsf3>
9d0033d8:	00000000 	nop
9d0033dc:	00401821 	move	v1,v0
9d0033e0:	8fc20020 	lw	v0,32(s8)
9d0033e4:	24420008 	addiu	v0,v0,8
9d0033e8:	8c420000 	lw	v0,0(v0)
9d0033ec:	00602021 	move	a0,v1
9d0033f0:	00402821 	move	a1,v0
9d0033f4:	0f40188e 	jal	9d006238 <__mulsf3>
9d0033f8:	00000000 	nop
9d0033fc:	00402021 	move	a0,v0
9d003400:	8fc5003c 	lw	a1,60(s8)
9d003404:	0f40188e 	jal	9d006238 <__mulsf3>
9d003408:	00000000 	nop
9d00340c:	02202021 	move	a0,s1
9d003410:	00402821 	move	a1,v0
9d003414:	0f401653 	jal	9d00594c <__subsf3>
9d003418:	00000000 	nop
9d00341c:	00408821 	move	s1,v0
9d003420:	3c029d00 	lui	v0,0x9d00
9d003424:	8c427b24 	lw	v0,31524(v0)
9d003428:	8fc40030 	lw	a0,48(s8)
9d00342c:	00402821 	move	a1,v0
9d003430:	0f401968 	jal	9d0065a0 <powf>
9d003434:	00000000 	nop
9d003438:	02202021 	move	a0,s1
9d00343c:	00402821 	move	a1,v0
9d003440:	0f401653 	jal	9d00594c <__subsf3>
9d003444:	00000000 	nop
9d003448:	ae020000 	sw	v0,0(s0)
9d00344c:	03c0e821 	move	sp,s8
9d003450:	8fbf001c 	lw	ra,28(sp)
9d003454:	8fbe0018 	lw	s8,24(sp)
9d003458:	8fb10014 	lw	s1,20(sp)
9d00345c:	8fb00010 	lw	s0,16(sp)
9d003460:	27bd0020 	addiu	sp,sp,32
9d003464:	03e00008 	jr	ra
9d003468:	00000000 	nop

9d00346c <jac>:
9d00346c:	27bdffe0 	addiu	sp,sp,-32
9d003470:	afbf001c 	sw	ra,28(sp)
9d003474:	afbe0018 	sw	s8,24(sp)
9d003478:	afb10014 	sw	s1,20(sp)
9d00347c:	afb00010 	sw	s0,16(sp)
9d003480:	03a0f021 	move	s8,sp
9d003484:	afc40020 	sw	a0,32(s8)
9d003488:	afc50024 	sw	a1,36(s8)
9d00348c:	afc60028 	sw	a2,40(s8)
9d003490:	afc7002c 	sw	a3,44(s8)
9d003494:	8fc20024 	lw	v0,36(s8)
9d003498:	8c500000 	lw	s0,0(v0)
9d00349c:	8fc20020 	lw	v0,32(s8)
9d0034a0:	8c420000 	lw	v0,0(v0)
9d0034a4:	00402021 	move	a0,v0
9d0034a8:	00402821 	move	a1,v0
9d0034ac:	0f401655 	jal	9d005954 <__addsf3>
9d0034b0:	00000000 	nop
9d0034b4:	00408821 	move	s1,v0
9d0034b8:	8fc20020 	lw	v0,32(s8)
9d0034bc:	24420004 	addiu	v0,v0,4
9d0034c0:	8c420000 	lw	v0,0(v0)
9d0034c4:	00402021 	move	a0,v0
9d0034c8:	00402821 	move	a1,v0
9d0034cc:	0f401655 	jal	9d005954 <__addsf3>
9d0034d0:	00000000 	nop
9d0034d4:	00402021 	move	a0,v0
9d0034d8:	8fc50028 	lw	a1,40(s8)
9d0034dc:	0f40188e 	jal	9d006238 <__mulsf3>
9d0034e0:	00000000 	nop
9d0034e4:	02202021 	move	a0,s1
9d0034e8:	00402821 	move	a1,v0
9d0034ec:	0f401653 	jal	9d00594c <__subsf3>
9d0034f0:	00000000 	nop
9d0034f4:	ae020000 	sw	v0,0(s0)
9d0034f8:	8fc20024 	lw	v0,36(s8)
9d0034fc:	8c420000 	lw	v0,0(v0)
9d003500:	24500004 	addiu	s0,v0,4
9d003504:	8fc20020 	lw	v0,32(s8)
9d003508:	24420004 	addiu	v0,v0,4
9d00350c:	8c420000 	lw	v0,0(v0)
9d003510:	00402021 	move	a0,v0
9d003514:	00402821 	move	a1,v0
9d003518:	0f401655 	jal	9d005954 <__addsf3>
9d00351c:	00000000 	nop
9d003520:	00408821 	move	s1,v0
9d003524:	8fc20020 	lw	v0,32(s8)
9d003528:	8c420000 	lw	v0,0(v0)
9d00352c:	00402021 	move	a0,v0
9d003530:	00402821 	move	a1,v0
9d003534:	0f401655 	jal	9d005954 <__addsf3>
9d003538:	00000000 	nop
9d00353c:	00402021 	move	a0,v0
9d003540:	8fc50028 	lw	a1,40(s8)
9d003544:	0f40188e 	jal	9d006238 <__mulsf3>
9d003548:	00000000 	nop
9d00354c:	02202021 	move	a0,s1
9d003550:	00402821 	move	a1,v0
9d003554:	0f401653 	jal	9d00594c <__subsf3>
9d003558:	00000000 	nop
9d00355c:	ae020000 	sw	v0,0(s0)
9d003560:	8fc20024 	lw	v0,36(s8)
9d003564:	8c420000 	lw	v0,0(v0)
9d003568:	24420008 	addiu	v0,v0,8
9d00356c:	00001821 	move	v1,zero
9d003570:	ac430000 	sw	v1,0(v0)
9d003574:	8fc20024 	lw	v0,36(s8)
9d003578:	24420004 	addiu	v0,v0,4
9d00357c:	8c420000 	lw	v0,0(v0)
9d003580:	00001821 	move	v1,zero
9d003584:	ac430000 	sw	v1,0(v0)
9d003588:	8fc20024 	lw	v0,36(s8)
9d00358c:	24420004 	addiu	v0,v0,4
9d003590:	8c420000 	lw	v0,0(v0)
9d003594:	24500004 	addiu	s0,v0,4
9d003598:	8fc20020 	lw	v0,32(s8)
9d00359c:	24420004 	addiu	v0,v0,4
9d0035a0:	8c420000 	lw	v0,0(v0)
9d0035a4:	00402021 	move	a0,v0
9d0035a8:	00402821 	move	a1,v0
9d0035ac:	0f401655 	jal	9d005954 <__addsf3>
9d0035b0:	00000000 	nop
9d0035b4:	00408821 	move	s1,v0
9d0035b8:	8fc20020 	lw	v0,32(s8)
9d0035bc:	24420008 	addiu	v0,v0,8
9d0035c0:	8c420000 	lw	v0,0(v0)
9d0035c4:	00402021 	move	a0,v0
9d0035c8:	00402821 	move	a1,v0
9d0035cc:	0f401655 	jal	9d005954 <__addsf3>
9d0035d0:	00000000 	nop
9d0035d4:	00402021 	move	a0,v0
9d0035d8:	8fc5002c 	lw	a1,44(s8)
9d0035dc:	0f40188e 	jal	9d006238 <__mulsf3>
9d0035e0:	00000000 	nop
9d0035e4:	02202021 	move	a0,s1
9d0035e8:	00402821 	move	a1,v0
9d0035ec:	0f401653 	jal	9d00594c <__subsf3>
9d0035f0:	00000000 	nop
9d0035f4:	ae020000 	sw	v0,0(s0)
9d0035f8:	8fc20024 	lw	v0,36(s8)
9d0035fc:	24420004 	addiu	v0,v0,4
9d003600:	8c420000 	lw	v0,0(v0)
9d003604:	24500008 	addiu	s0,v0,8
9d003608:	8fc20020 	lw	v0,32(s8)
9d00360c:	24420008 	addiu	v0,v0,8
9d003610:	8c420000 	lw	v0,0(v0)
9d003614:	00402021 	move	a0,v0
9d003618:	00402821 	move	a1,v0
9d00361c:	0f401655 	jal	9d005954 <__addsf3>
9d003620:	00000000 	nop
9d003624:	00408821 	move	s1,v0
9d003628:	8fc20020 	lw	v0,32(s8)
9d00362c:	24420004 	addiu	v0,v0,4
9d003630:	8c420000 	lw	v0,0(v0)
9d003634:	00402021 	move	a0,v0
9d003638:	00402821 	move	a1,v0
9d00363c:	0f401655 	jal	9d005954 <__addsf3>
9d003640:	00000000 	nop
9d003644:	00402021 	move	a0,v0
9d003648:	8fc5002c 	lw	a1,44(s8)
9d00364c:	0f40188e 	jal	9d006238 <__mulsf3>
9d003650:	00000000 	nop
9d003654:	02202021 	move	a0,s1
9d003658:	00402821 	move	a1,v0
9d00365c:	0f401653 	jal	9d00594c <__subsf3>
9d003660:	00000000 	nop
9d003664:	ae020000 	sw	v0,0(s0)
9d003668:	8fc20024 	lw	v0,36(s8)
9d00366c:	24420008 	addiu	v0,v0,8
9d003670:	8c500000 	lw	s0,0(v0)
9d003674:	8fc20020 	lw	v0,32(s8)
9d003678:	8c420000 	lw	v0,0(v0)
9d00367c:	00402021 	move	a0,v0
9d003680:	00402821 	move	a1,v0
9d003684:	0f401655 	jal	9d005954 <__addsf3>
9d003688:	00000000 	nop
9d00368c:	00408821 	move	s1,v0
9d003690:	8fc20020 	lw	v0,32(s8)
9d003694:	24420008 	addiu	v0,v0,8
9d003698:	8c420000 	lw	v0,0(v0)
9d00369c:	00402021 	move	a0,v0
9d0036a0:	00402821 	move	a1,v0
9d0036a4:	0f401655 	jal	9d005954 <__addsf3>
9d0036a8:	00000000 	nop
9d0036ac:	00402021 	move	a0,v0
9d0036b0:	8fc50030 	lw	a1,48(s8)
9d0036b4:	0f40188e 	jal	9d006238 <__mulsf3>
9d0036b8:	00000000 	nop
9d0036bc:	02202021 	move	a0,s1
9d0036c0:	00402821 	move	a1,v0
9d0036c4:	0f401653 	jal	9d00594c <__subsf3>
9d0036c8:	00000000 	nop
9d0036cc:	ae020000 	sw	v0,0(s0)
9d0036d0:	8fc20024 	lw	v0,36(s8)
9d0036d4:	24420008 	addiu	v0,v0,8
9d0036d8:	8c420000 	lw	v0,0(v0)
9d0036dc:	24420004 	addiu	v0,v0,4
9d0036e0:	00001821 	move	v1,zero
9d0036e4:	ac430000 	sw	v1,0(v0)
9d0036e8:	8fc20024 	lw	v0,36(s8)
9d0036ec:	24420008 	addiu	v0,v0,8
9d0036f0:	8c420000 	lw	v0,0(v0)
9d0036f4:	24500008 	addiu	s0,v0,8
9d0036f8:	8fc20020 	lw	v0,32(s8)
9d0036fc:	24420008 	addiu	v0,v0,8
9d003700:	8c420000 	lw	v0,0(v0)
9d003704:	00402021 	move	a0,v0
9d003708:	00402821 	move	a1,v0
9d00370c:	0f401655 	jal	9d005954 <__addsf3>
9d003710:	00000000 	nop
9d003714:	00408821 	move	s1,v0
9d003718:	8fc20020 	lw	v0,32(s8)
9d00371c:	8c420000 	lw	v0,0(v0)
9d003720:	00402021 	move	a0,v0
9d003724:	00402821 	move	a1,v0
9d003728:	0f401655 	jal	9d005954 <__addsf3>
9d00372c:	00000000 	nop
9d003730:	00402021 	move	a0,v0
9d003734:	8fc50030 	lw	a1,48(s8)
9d003738:	0f40188e 	jal	9d006238 <__mulsf3>
9d00373c:	00000000 	nop
9d003740:	02202021 	move	a0,s1
9d003744:	00402821 	move	a1,v0
9d003748:	0f401653 	jal	9d00594c <__subsf3>
9d00374c:	00000000 	nop
9d003750:	ae020000 	sw	v0,0(s0)
9d003754:	03c0e821 	move	sp,s8
9d003758:	8fbf001c 	lw	ra,28(sp)
9d00375c:	8fbe0018 	lw	s8,24(sp)
9d003760:	8fb10014 	lw	s1,20(sp)
9d003764:	8fb00010 	lw	s0,16(sp)
9d003768:	27bd0020 	addiu	sp,sp,32
9d00376c:	03e00008 	jr	ra
9d003770:	00000000 	nop

9d003774 <newtonOpt>:
9d003774:	27bdffb8 	addiu	sp,sp,-72
9d003778:	afbf0044 	sw	ra,68(sp)
9d00377c:	afbe0040 	sw	s8,64(sp)
9d003780:	afb0003c 	sw	s0,60(sp)
9d003784:	03a0f021 	move	s8,sp
9d003788:	afc40048 	sw	a0,72(s8)
9d00378c:	afc5004c 	sw	a1,76(s8)
9d003790:	afc60050 	sw	a2,80(s8)
9d003794:	afc70054 	sw	a3,84(s8)
9d003798:	afc00024 	sw	zero,36(s8)
9d00379c:	0b400e3c 	j	9d0038f0 <newtonOpt+0x17c>
9d0037a0:	00000000 	nop
9d0037a4:	8fc20060 	lw	v0,96(s8)
9d0037a8:	afa20010 	sw	v0,16(sp)
9d0037ac:	8fc20064 	lw	v0,100(s8)
9d0037b0:	afa20014 	sw	v0,20(sp)
9d0037b4:	8fc20068 	lw	v0,104(s8)
9d0037b8:	afa20018 	sw	v0,24(sp)
9d0037bc:	8fc2006c 	lw	v0,108(s8)
9d0037c0:	afa2001c 	sw	v0,28(sp)
9d0037c4:	8fc40048 	lw	a0,72(s8)
9d0037c8:	8fc50050 	lw	a1,80(s8)
9d0037cc:	8fc60058 	lw	a2,88(s8)
9d0037d0:	8fc7005c 	lw	a3,92(s8)
9d0037d4:	0f400c56 	jal	9d003158 <f>
9d0037d8:	00000000 	nop
9d0037dc:	8fc2006c 	lw	v0,108(s8)
9d0037e0:	afa20010 	sw	v0,16(sp)
9d0037e4:	8fc40048 	lw	a0,72(s8)
9d0037e8:	8fc50054 	lw	a1,84(s8)
9d0037ec:	8fc60064 	lw	a2,100(s8)
9d0037f0:	8fc70068 	lw	a3,104(s8)
9d0037f4:	0f400d1b 	jal	9d00346c <jac>
9d0037f8:	00000000 	nop
9d0037fc:	27c2002c 	addiu	v0,s8,44
9d003800:	8fc40054 	lw	a0,84(s8)
9d003804:	8fc50050 	lw	a1,80(s8)
9d003808:	00403021 	move	a2,v0
9d00380c:	24070003 	li	a3,3
9d003810:	0f400b19 	jal	9d002c64 <gelim>
9d003814:	00000000 	nop
9d003818:	00001021 	move	v0,zero
9d00381c:	afc20020 	sw	v0,32(s8)
9d003820:	afc00028 	sw	zero,40(s8)
9d003824:	0b400e2c 	j	9d0038b0 <newtonOpt+0x13c>
9d003828:	00000000 	nop
9d00382c:	8fc20028 	lw	v0,40(s8)
9d003830:	00021080 	sll	v0,v0,0x2
9d003834:	27c30020 	addiu	v1,s8,32
9d003838:	00621021 	addu	v0,v1,v0
9d00383c:	8c42000c 	lw	v0,12(v0)
9d003840:	7c42f000 	ext	v0,v0,0x0,0x1f
9d003844:	8fc40020 	lw	a0,32(s8)
9d003848:	00402821 	move	a1,v0
9d00384c:	0f401655 	jal	9d005954 <__addsf3>
9d003850:	00000000 	nop
9d003854:	afc20020 	sw	v0,32(s8)
9d003858:	8fc20028 	lw	v0,40(s8)
9d00385c:	00021080 	sll	v0,v0,0x2
9d003860:	8fc30048 	lw	v1,72(s8)
9d003864:	00628021 	addu	s0,v1,v0
9d003868:	8fc20028 	lw	v0,40(s8)
9d00386c:	00021080 	sll	v0,v0,0x2
9d003870:	8fc30048 	lw	v1,72(s8)
9d003874:	00621021 	addu	v0,v1,v0
9d003878:	8c430000 	lw	v1,0(v0)
9d00387c:	8fc20028 	lw	v0,40(s8)
9d003880:	00021080 	sll	v0,v0,0x2
9d003884:	27c40020 	addiu	a0,s8,32
9d003888:	00821021 	addu	v0,a0,v0
9d00388c:	8c42000c 	lw	v0,12(v0)
9d003890:	00602021 	move	a0,v1
9d003894:	00402821 	move	a1,v0
9d003898:	0f401653 	jal	9d00594c <__subsf3>
9d00389c:	00000000 	nop
9d0038a0:	ae020000 	sw	v0,0(s0)
9d0038a4:	8fc20028 	lw	v0,40(s8)
9d0038a8:	24420001 	addiu	v0,v0,1
9d0038ac:	afc20028 	sw	v0,40(s8)
9d0038b0:	8fc20028 	lw	v0,40(s8)
9d0038b4:	28420003 	slti	v0,v0,3
9d0038b8:	1440ffdc 	bnez	v0,9d00382c <newtonOpt+0xb8>
9d0038bc:	00000000 	nop
9d0038c0:	3c029d00 	lui	v0,0x9d00
9d0038c4:	8fc40020 	lw	a0,32(s8)
9d0038c8:	8c457b28 	lw	a1,31528(v0)
9d0038cc:	0f401c46 	jal	9d007118 <__eqsf2>
9d0038d0:	00000000 	nop
9d0038d4:	04410003 	bgez	v0,9d0038e4 <newtonOpt+0x170>
9d0038d8:	00000000 	nop
9d0038dc:	0b400e42 	j	9d003908 <newtonOpt+0x194>
9d0038e0:	00000000 	nop
9d0038e4:	8fc20024 	lw	v0,36(s8)
9d0038e8:	24420001 	addiu	v0,v0,1
9d0038ec:	afc20024 	sw	v0,36(s8)
9d0038f0:	8fc2004c 	lw	v0,76(s8)
9d0038f4:	8c430000 	lw	v1,0(v0)
9d0038f8:	8fc20024 	lw	v0,36(s8)
9d0038fc:	0043102a 	slt	v0,v0,v1
9d003900:	1440ffa8 	bnez	v0,9d0037a4 <newtonOpt+0x30>
9d003904:	00000000 	nop
9d003908:	8fc2004c 	lw	v0,76(s8)
9d00390c:	8fc30024 	lw	v1,36(s8)
9d003910:	ac430000 	sw	v1,0(v0)
9d003914:	03c0e821 	move	sp,s8
9d003918:	8fbf0044 	lw	ra,68(sp)
9d00391c:	8fbe0040 	lw	s8,64(sp)
9d003920:	8fb0003c 	lw	s0,60(sp)
9d003924:	27bd0048 	addiu	sp,sp,72
9d003928:	03e00008 	jr	ra
9d00392c:	00000000 	nop

Disassembly of section .text._do_print_fF:

9d003930 <_do_print_fF>:
9d003930:	27bdff60 	addiu	sp,sp,-160
9d003934:	afbf009c 	sw	ra,156(sp)
9d003938:	afbe0098 	sw	s8,152(sp)
9d00393c:	afb70094 	sw	s7,148(sp)
9d003940:	afb60090 	sw	s6,144(sp)
9d003944:	afb5008c 	sw	s5,140(sp)
9d003948:	afb40088 	sw	s4,136(sp)
9d00394c:	afb30084 	sw	s3,132(sp)
9d003950:	afb20080 	sw	s2,128(sp)
9d003954:	afb1007c 	sw	s1,124(sp)
9d003958:	afb00078 	sw	s0,120(sp)
9d00395c:	00809021 	move	s2,a0
9d003960:	8c820018 	lw	v0,24(a0)
9d003964:	00a0f021 	move	s8,a1
9d003968:	24050001 	li	a1,1
9d00396c:	8c420010 	lw	v0,16(v0)
9d003970:	0040f809 	jalr	v0
9d003974:	00c08821 	move	s1,a2
9d003978:	10400188 	beqz	v0,9d003f9c <_do_print_fF+0x66c>
9d00397c:	00008021 	move	s0,zero
9d003980:	83c40000 	lb	a0,0(s8)
9d003984:	1080000b 	beqz	a0,9d0039b4 <_do_print_fF+0x84>
9d003988:	27d40001 	addiu	s4,s8,1
9d00398c:	24020025 	li	v0,37
9d003990:	50820019 	beql	a0,v0,9d0039f8 <_do_print_fF+0xc8>
9d003994:	83c20001 	lb	v0,1(s8)
9d003998:	0f401c1b 	jal	9d00706c <fputc>
9d00399c:	02402821 	move	a1,s2
9d0039a0:	26100001 	addiu	s0,s0,1
9d0039a4:	0280f021 	move	s8,s4
9d0039a8:	83c40000 	lb	a0,0(s8)
9d0039ac:	1480fff7 	bnez	a0,9d00398c <_do_print_fF+0x5c>
9d0039b0:	27d40001 	addiu	s4,s8,1
9d0039b4:	96420010 	lhu	v0,16(s2)
9d0039b8:	30420040 	andi	v0,v0,0x40
9d0039bc:	14400178 	bnez	v0,9d003fa0 <_do_print_fF+0x670>
9d0039c0:	2402ffff 	li	v0,-1
9d0039c4:	02001021 	move	v0,s0
9d0039c8:	8fbf009c 	lw	ra,156(sp)
9d0039cc:	8fbe0098 	lw	s8,152(sp)
9d0039d0:	8fb70094 	lw	s7,148(sp)
9d0039d4:	8fb60090 	lw	s6,144(sp)
9d0039d8:	8fb5008c 	lw	s5,140(sp)
9d0039dc:	8fb40088 	lw	s4,136(sp)
9d0039e0:	8fb30084 	lw	s3,132(sp)
9d0039e4:	8fb20080 	lw	s2,128(sp)
9d0039e8:	8fb1007c 	lw	s1,124(sp)
9d0039ec:	8fb00078 	lw	s0,120(sp)
9d0039f0:	03e00008 	jr	ra
9d0039f4:	27bd00a0 	addiu	sp,sp,160
9d0039f8:	1044015e 	beq	v0,a0,9d003f74 <_do_print_fF+0x644>
9d0039fc:	00009821 	move	s3,zero
9d003a00:	2403002d 	li	v1,45
9d003a04:	2404002b 	li	a0,43
9d003a08:	24050020 	li	a1,32
9d003a0c:	24060023 	li	a2,35
9d003a10:	1043000e 	beq	v0,v1,9d003a4c <_do_print_fF+0x11c>
9d003a14:	24070030 	li	a3,48
9d003a18:	50440010 	beql	v0,a0,9d003a5c <_do_print_fF+0x12c>
9d003a1c:	36730002 	ori	s3,s3,0x2
9d003a20:	50450011 	beql	v0,a1,9d003a68 <_do_print_fF+0x138>
9d003a24:	36730001 	ori	s3,s3,0x1
9d003a28:	50460012 	beql	v0,a2,9d003a74 <_do_print_fF+0x144>
9d003a2c:	36730800 	ori	s3,s3,0x800
9d003a30:	54470013 	bnel	v0,a3,9d003a80 <_do_print_fF+0x150>
9d003a34:	2403002a 	li	v1,42
9d003a38:	36730004 	ori	s3,s3,0x4
9d003a3c:	26940001 	addiu	s4,s4,1
9d003a40:	82820000 	lb	v0,0(s4)
9d003a44:	1443fff4 	bne	v0,v1,9d003a18 <_do_print_fF+0xe8>
9d003a48:	00000000 	nop
9d003a4c:	36730008 	ori	s3,s3,0x8
9d003a50:	26940001 	addiu	s4,s4,1
9d003a54:	0b400e91 	j	9d003a44 <_do_print_fF+0x114>
9d003a58:	82820000 	lb	v0,0(s4)
9d003a5c:	26940001 	addiu	s4,s4,1
9d003a60:	0b400e91 	j	9d003a44 <_do_print_fF+0x114>
9d003a64:	82820000 	lb	v0,0(s4)
9d003a68:	26940001 	addiu	s4,s4,1
9d003a6c:	0b400e91 	j	9d003a44 <_do_print_fF+0x114>
9d003a70:	82820000 	lb	v0,0(s4)
9d003a74:	26940001 	addiu	s4,s4,1
9d003a78:	0b400e91 	j	9d003a44 <_do_print_fF+0x114>
9d003a7c:	82820000 	lb	v0,0(s4)
9d003a80:	10430124 	beq	v0,v1,9d003f14 <_do_print_fF+0x5e4>
9d003a84:	02802021 	move	a0,s4
9d003a88:	2443ffd0 	addiu	v1,v0,-48
9d003a8c:	2c63000a 	sltiu	v1,v1,10
9d003a90:	1060000b 	beqz	v1,9d003ac0 <_do_print_fF+0x190>
9d003a94:	0000b021 	move	s6,zero
9d003a98:	00161840 	sll	v1,s6,0x1
9d003a9c:	001640c0 	sll	t0,s6,0x3
9d003aa0:	00684021 	addu	t0,v1,t0
9d003aa4:	26940001 	addiu	s4,s4,1
9d003aa8:	01024021 	addu	t0,t0,v0
9d003aac:	82820000 	lb	v0,0(s4)
9d003ab0:	2443ffd0 	addiu	v1,v0,-48
9d003ab4:	2c63000a 	sltiu	v1,v1,10
9d003ab8:	1460fff7 	bnez	v1,9d003a98 <_do_print_fF+0x168>
9d003abc:	2516ffd0 	addiu	s6,t0,-48
9d003ac0:	2403002e 	li	v1,46
9d003ac4:	104300ff 	beq	v0,v1,9d003ec4 <_do_print_fF+0x594>
9d003ac8:	2417ffff 	li	s7,-1
9d003acc:	24030068 	li	v1,104
9d003ad0:	104300e9 	beq	v0,v1,9d003e78 <_do_print_fF+0x548>
9d003ad4:	2403006c 	li	v1,108
9d003ad8:	10430116 	beq	v0,v1,9d003f34 <_do_print_fF+0x604>
9d003adc:	24030071 	li	v1,113
9d003ae0:	1043012a 	beq	v0,v1,9d003f8c <_do_print_fF+0x65c>
9d003ae4:	2403004c 	li	v1,76
9d003ae8:	50430160 	beql	v0,v1,9d00406c <_do_print_fF+0x73c>
9d003aec:	82820001 	lb	v0,1(s4)
9d003af0:	32640002 	andi	a0,s3,0x2
9d003af4:	3263fffe 	andi	v1,s3,0xfffe
9d003af8:	0064980b 	movn	s3,v1,a0
9d003afc:	2442ffbc 	addiu	v0,v0,-68
9d003b00:	32650008 	andi	a1,s3,0x8
9d003b04:	3264fffb 	andi	a0,s3,0xfffb
9d003b08:	2c430032 	sltiu	v1,v0,50
9d003b0c:	269e0001 	addiu	s8,s4,1
9d003b10:	106000e9 	beqz	v1,9d003eb8 <_do_print_fF+0x588>
9d003b14:	0085980b 	movn	s3,a0,a1
9d003b18:	00021080 	sll	v0,v0,0x2
9d003b1c:	3c039d00 	lui	v1,0x9d00
9d003b20:	24633b34 	addiu	v1,v1,15156
9d003b24:	00621021 	addu	v0,v1,v0
9d003b28:	8c420000 	lw	v0,0(v0)
9d003b2c:	00400008 	jr	v0
9d003b30:	00000000 	nop
9d003b34:	9d003bfc 	0x9d003bfc
9d003b38:	9d003eb8 	0x9d003eb8
9d003b3c:	9d003eb8 	0x9d003eb8
9d003b40:	9d003eb8 	0x9d003eb8
9d003b44:	9d003eb8 	0x9d003eb8
9d003b48:	9d003eb8 	0x9d003eb8
9d003b4c:	9d003eb8 	0x9d003eb8
9d003b50:	9d003eb8 	0x9d003eb8
9d003b54:	9d003eb8 	0x9d003eb8
9d003b58:	9d003eb8 	0x9d003eb8
9d003b5c:	9d003eb8 	0x9d003eb8
9d003b60:	9d003eb8 	0x9d003eb8
9d003b64:	9d003eb8 	0x9d003eb8
9d003b68:	9d003eb8 	0x9d003eb8
9d003b6c:	9d003eb8 	0x9d003eb8
9d003b70:	9d003eb8 	0x9d003eb8
9d003b74:	9d003eb8 	0x9d003eb8
9d003b78:	9d003c00 	0x9d003c00
9d003b7c:	9d003eb8 	0x9d003eb8
9d003b80:	9d003eb8 	0x9d003eb8
9d003b84:	9d003eb8 	0x9d003eb8
9d003b88:	9d003eb8 	0x9d003eb8
9d003b8c:	9d003eb8 	0x9d003eb8
9d003b90:	9d003eb8 	0x9d003eb8
9d003b94:	9d003eb8 	0x9d003eb8
9d003b98:	9d003eb8 	0x9d003eb8
9d003b9c:	9d003eb8 	0x9d003eb8
9d003ba0:	9d003eb8 	0x9d003eb8
9d003ba4:	9d003eb8 	0x9d003eb8
9d003ba8:	9d003eb8 	0x9d003eb8
9d003bac:	9d003eb8 	0x9d003eb8
9d003bb0:	9d003d84 	0x9d003d84
9d003bb4:	9d003eb8 	0x9d003eb8
9d003bb8:	9d003eb8 	0x9d003eb8
9d003bbc:	9d003e44 	0x9d003e44
9d003bc0:	9d003eb8 	0x9d003eb8
9d003bc4:	9d003eb8 	0x9d003eb8
9d003bc8:	9d003eb8 	0x9d003eb8
9d003bcc:	9d003eb8 	0x9d003eb8
9d003bd0:	9d003eb8 	0x9d003eb8
9d003bd4:	9d003eb8 	0x9d003eb8
9d003bd8:	9d003eb8 	0x9d003eb8
9d003bdc:	9d003e18 	0x9d003e18
9d003be0:	9d003eb8 	0x9d003eb8
9d003be4:	9d003eb8 	0x9d003eb8
9d003be8:	9d003eb8 	0x9d003eb8
9d003bec:	9d003eb8 	0x9d003eb8
9d003bf0:	9d003db0 	0x9d003db0
9d003bf4:	9d003eb8 	0x9d003eb8
9d003bf8:	9d003c04 	0x9d003c04
9d003bfc:	36730010 	ori	s3,s3,0x10
9d003c00:	36730010 	ori	s3,s3,0x10
9d003c04:	2402ffff 	li	v0,-1
9d003c08:	52e2011a 	beql	s7,v0,9d004074 <_do_print_fF+0x744>
9d003c0c:	3273f7ff 	andi	s3,s3,0xf7ff
9d003c10:	3273f7fb 	andi	s3,s3,0xf7fb
9d003c14:	afb30060 	sw	s3,96(sp)
9d003c18:	26e5ffff 	addiu	a1,s7,-1
9d003c1c:	8fa40060 	lw	a0,96(sp)
9d003c20:	308400c0 	andi	a0,a0,0xc0
9d003c24:	108000ca 	beqz	a0,9d003f50 <_do_print_fF+0x620>
9d003c28:	afa40064 	sw	a0,100(sp)
9d003c2c:	8fa30060 	lw	v1,96(sp)
9d003c30:	7c031620 	seh	v0,v1
9d003c34:	04420137 	bltzl	v0,9d004114 <_do_print_fF+0x7e4>
9d003c38:	26310007 	addiu	s1,s1,7
9d003c3c:	8e350000 	lw	s5,0(s1)
9d003c40:	26310004 	addiu	s1,s1,4
9d003c44:	0015a7c3 	sra	s4,s5,0x1f
9d003c48:	02801021 	move	v0,s4
9d003c4c:	044000e9 	bltz	v0,9d003ff4 <_do_print_fF+0x6c4>
9d003c50:	02a01821 	move	v1,s5
9d003c54:	afa0006c 	sw	zero,108(sp)
9d003c58:	128000ee 	beqz	s4,9d004014 <_do_print_fF+0x6e4>
9d003c5c:	00000000 	nop
9d003c60:	27a30057 	addiu	v1,sp,87
9d003c64:	afa30068 	sw	v1,104(sp)
9d003c68:	02b41025 	or	v0,s5,s4
9d003c6c:	10400014 	beqz	v0,9d003cc0 <_do_print_fF+0x390>
9d003c70:	00609821 	move	s3,v1
9d003c74:	02a02021 	move	a0,s5
9d003c78:	02802821 	move	a1,s4
9d003c7c:	2406000a 	li	a2,10
9d003c80:	0f4011c8 	jal	9d004720 <__umoddi3>
9d003c84:	00003821 	move	a3,zero
9d003c88:	24420030 	addiu	v0,v0,48
9d003c8c:	2673ffff 	addiu	s3,s3,-1
9d003c90:	02a02021 	move	a0,s5
9d003c94:	02802821 	move	a1,s4
9d003c98:	a2620001 	sb	v0,1(s3)
9d003c9c:	2406000a 	li	a2,10
9d003ca0:	0f4012e1 	jal	9d004b84 <__udivdi3>
9d003ca4:	00003821 	move	a3,zero
9d003ca8:	00622025 	or	a0,v1,v0
9d003cac:	0040a821 	move	s5,v0
9d003cb0:	0060a021 	move	s4,v1
9d003cb4:	1480ffef 	bnez	a0,9d003c74 <_do_print_fF+0x344>
9d003cb8:	26f7ffff 	addiu	s7,s7,-1
9d003cbc:	26e5ffff 	addiu	a1,s7,-1
9d003cc0:	04a0000a 	bltz	a1,9d003cec <_do_print_fF+0x3bc>
9d003cc4:	2664ffff 	addiu	a0,s3,-1
9d003cc8:	02601021 	move	v0,s3
9d003ccc:	00852023 	subu	a0,a0,a1
9d003cd0:	24030030 	li	v1,48
9d003cd4:	a0430000 	sb	v1,0(v0)
9d003cd8:	2442ffff 	addiu	v0,v0,-1
9d003cdc:	5444fffe 	bnel	v0,a0,9d003cd8 <_do_print_fF+0x3a8>
9d003ce0:	a0430000 	sb	v1,0(v0)
9d003ce4:	00052827 	nor	a1,zero,a1
9d003ce8:	02659821 	addu	s3,s3,a1
9d003cec:	8fa40060 	lw	a0,96(sp)
9d003cf0:	30820004 	andi	v0,a0,0x4
9d003cf4:	10400010 	beqz	v0,9d003d38 <_do_print_fF+0x408>
9d003cf8:	8fa20064 	lw	v0,100(sp)
9d003cfc:	8fa20068 	lw	v0,104(sp)
9d003d00:	02621823 	subu	v1,s3,v0
9d003d04:	8fa40064 	lw	a0,100(sp)
9d003d08:	148000b1 	bnez	a0,9d003fd0 <_do_print_fF+0x6a0>
9d003d0c:	02c31821 	addu	v1,s6,v1
9d003d10:	18600008 	blez	v1,9d003d34 <_do_print_fF+0x404>
9d003d14:	02601021 	move	v0,s3
9d003d18:	02635023 	subu	t2,s3,v1
9d003d1c:	24030030 	li	v1,48
9d003d20:	a0430000 	sb	v1,0(v0)
9d003d24:	2442ffff 	addiu	v0,v0,-1
9d003d28:	5542fffe 	bnel	t2,v0,9d003d24 <_do_print_fF+0x3f4>
9d003d2c:	a0430000 	sb	v1,0(v0)
9d003d30:	01409821 	move	s3,t2
9d003d34:	8fa20064 	lw	v0,100(sp)
9d003d38:	10400008 	beqz	v0,9d003d5c <_do_print_fF+0x42c>
9d003d3c:	8fa3006c 	lw	v1,108(sp)
9d003d40:	146000d0 	bnez	v1,9d004084 <_do_print_fF+0x754>
9d003d44:	8fa40060 	lw	a0,96(sp)
9d003d48:	30820002 	andi	v0,a0,0x2
9d003d4c:	10400003 	beqz	v0,9d003d5c <_do_print_fF+0x42c>
9d003d50:	2402002b 	li	v0,43
9d003d54:	a2620000 	sb	v0,0(s3)
9d003d58:	2673ffff 	addiu	s3,s3,-1
9d003d5c:	26650001 	addiu	a1,s3,1
9d003d60:	8fa20060 	lw	v0,96(sp)
9d003d64:	afa20010 	sw	v0,16(sp)
9d003d68:	02402021 	move	a0,s2
9d003d6c:	27a60058 	addiu	a2,sp,88
9d003d70:	00c53023 	subu	a2,a2,a1
9d003d74:	0f4019ba 	jal	9d0066e8 <.LFE0>
9d003d78:	02c03821 	move	a3,s6
9d003d7c:	0b400e60 	j	9d003980 <_do_print_fF+0x50>
9d003d80:	02028021 	addu	s0,s0,v0
9d003d84:	8e220000 	lw	v0,0(s1)
9d003d88:	26310004 	addiu	s1,s1,4
9d003d8c:	afb30010 	sw	s3,16(sp)
9d003d90:	02402021 	move	a0,s2
9d003d94:	27a50018 	addiu	a1,sp,24
9d003d98:	24060001 	li	a2,1
9d003d9c:	02c03821 	move	a3,s6
9d003da0:	0f4019ba 	jal	9d0066e8 <.LFE0>
9d003da4:	a3a20018 	sb	v0,24(sp)
9d003da8:	0b400e60 	j	9d003980 <_do_print_fF+0x50>
9d003dac:	02028021 	addu	s0,s0,v0
9d003db0:	8e250000 	lw	a1,0(s1)
9d003db4:	3c039d00 	lui	v1,0x9d00
9d003db8:	24627768 	addiu	v0,v1,30568
9d003dbc:	0045280a 	movz	a1,v0,a1
9d003dc0:	2402ffff 	li	v0,-1
9d003dc4:	12e200ee 	beq	s7,v0,9d004180 <_do_print_fF+0x850>
9d003dc8:	26310004 	addiu	s1,s1,4
9d003dcc:	1ae000fa 	blez	s7,9d0041b8 <_do_print_fF+0x888>
9d003dd0:	00b74821 	addu	t1,a1,s7
9d003dd4:	80a30000 	lb	v1,0(a1)
9d003dd8:	14600005 	bnez	v1,9d003df0 <_do_print_fF+0x4c0>
9d003ddc:	00a01021 	move	v0,a1
9d003de0:	0b400f80 	j	9d003e00 <_do_print_fF+0x4d0>
9d003de4:	00003021 	move	a2,zero
9d003de8:	10600005 	beqz	v1,9d003e00 <_do_print_fF+0x4d0>
9d003dec:	00453023 	subu	a2,v0,a1
9d003df0:	24420001 	addiu	v0,v0,1
9d003df4:	5449fffc 	bnel	v0,t1,9d003de8 <_do_print_fF+0x4b8>
9d003df8:	80430000 	lb	v1,0(v0)
9d003dfc:	00453023 	subu	a2,v0,a1
9d003e00:	afb30010 	sw	s3,16(sp)
9d003e04:	02402021 	move	a0,s2
9d003e08:	0f4019ba 	jal	9d0066e8 <.LFE0>
9d003e0c:	02c03821 	move	a3,s6
9d003e10:	0b400e60 	j	9d003980 <_do_print_fF+0x50>
9d003e14:	02028021 	addu	s0,s0,v0
9d003e18:	7c131620 	seh	v0,s3
9d003e1c:	044000d0 	bltz	v0,9d004160 <_do_print_fF+0x830>
9d003e20:	32620010 	andi	v0,s3,0x10
9d003e24:	104000c5 	beqz	v0,9d00413c <_do_print_fF+0x80c>
9d003e28:	32620040 	andi	v0,s3,0x40
9d003e2c:	8e230000 	lw	v1,0(s1)
9d003e30:	00001021 	move	v0,zero
9d003e34:	26310004 	addiu	s1,s1,4
9d003e38:	ac700000 	sw	s0,0(v1)
9d003e3c:	0b400e60 	j	9d003980 <_do_print_fF+0x50>
9d003e40:	02028021 	addu	s0,s0,v0
9d003e44:	8e220000 	lw	v0,0(s1)
9d003e48:	36730400 	ori	s3,s3,0x400
9d003e4c:	26310004 	addiu	s1,s1,4
9d003e50:	afa20058 	sw	v0,88(sp)
9d003e54:	8fa50058 	lw	a1,88(sp)
9d003e58:	afb70010 	sw	s7,16(sp)
9d003e5c:	afb30014 	sw	s3,20(sp)
9d003e60:	02402021 	move	a0,s2
9d003e64:	24060066 	li	a2,102
9d003e68:	0f401074 	jal	9d0041d0 <_fconvert>
9d003e6c:	02c03821 	move	a3,s6
9d003e70:	0b400e60 	j	9d003980 <_do_print_fF+0x50>
9d003e74:	02028021 	addu	s0,s0,v0
9d003e78:	82830001 	lb	v1,1(s4)
9d003e7c:	50620096 	beql	v1,v0,9d0040d8 <_do_print_fF+0x7a8>
9d003e80:	82820002 	lb	v0,2(s4)
9d003e84:	36730040 	ori	s3,s3,0x40
9d003e88:	00601021 	move	v0,v1
9d003e8c:	26940001 	addiu	s4,s4,1
9d003e90:	32640002 	andi	a0,s3,0x2
9d003e94:	3263fffe 	andi	v1,s3,0xfffe
9d003e98:	0064980b 	movn	s3,v1,a0
9d003e9c:	2442ffbc 	addiu	v0,v0,-68
9d003ea0:	32650008 	andi	a1,s3,0x8
9d003ea4:	3264fffb 	andi	a0,s3,0xfffb
9d003ea8:	2c430032 	sltiu	v1,v0,50
9d003eac:	269e0001 	addiu	s8,s4,1
9d003eb0:	1460ff19 	bnez	v1,9d003b18 <_do_print_fF+0x1e8>
9d003eb4:	0085980b 	movn	s3,a0,a1
9d003eb8:	00001021 	move	v0,zero
9d003ebc:	0b400e60 	j	9d003980 <_do_print_fF+0x50>
9d003ec0:	02028021 	addu	s0,s0,v0
9d003ec4:	82820001 	lb	v0,1(s4)
9d003ec8:	2403002a 	li	v1,42
9d003ecc:	1043007a 	beq	v0,v1,9d0040b8 <_do_print_fF+0x788>
9d003ed0:	2443ffd0 	addiu	v1,v0,-48
9d003ed4:	2c63000a 	sltiu	v1,v1,10
9d003ed8:	26940001 	addiu	s4,s4,1
9d003edc:	1060fefb 	beqz	v1,9d003acc <_do_print_fF+0x19c>
9d003ee0:	0000b821 	move	s7,zero
9d003ee4:	00171840 	sll	v1,s7,0x1
9d003ee8:	001748c0 	sll	t1,s7,0x3
9d003eec:	00694821 	addu	t1,v1,t1
9d003ef0:	26940001 	addiu	s4,s4,1
9d003ef4:	01224821 	addu	t1,t1,v0
9d003ef8:	82820000 	lb	v0,0(s4)
9d003efc:	2443ffd0 	addiu	v1,v0,-48
9d003f00:	2c63000a 	sltiu	v1,v1,10
9d003f04:	1460fff7 	bnez	v1,9d003ee4 <_do_print_fF+0x5b4>
9d003f08:	2537ffd0 	addiu	s7,t1,-48
9d003f0c:	0b400eb4 	j	9d003ad0 <_do_print_fF+0x1a0>
9d003f10:	24030068 	li	v1,104
9d003f14:	8e360000 	lw	s6,0(s1)
9d003f18:	26310004 	addiu	s1,s1,4
9d003f1c:	26940001 	addiu	s4,s4,1
9d003f20:	06c1fee7 	bgez	s6,9d003ac0 <_do_print_fF+0x190>
9d003f24:	80820001 	lb	v0,1(a0)
9d003f28:	36730008 	ori	s3,s3,0x8
9d003f2c:	0b400eb0 	j	9d003ac0 <_do_print_fF+0x190>
9d003f30:	0016b023 	negu	s6,s6
9d003f34:	82830001 	lb	v1,1(s4)
9d003f38:	5062006b 	beql	v1,v0,9d0040e8 <_do_print_fF+0x7b8>
9d003f3c:	82820002 	lb	v0,2(s4)
9d003f40:	36730010 	ori	s3,s3,0x10
9d003f44:	00601021 	move	v0,v1
9d003f48:	0b400fa4 	j	9d003e90 <_do_print_fF+0x560>
9d003f4c:	26940001 	addiu	s4,s4,1
9d003f50:	8fa40060 	lw	a0,96(sp)
9d003f54:	7c041620 	seh	v0,a0
9d003f58:	04420067 	bltzl	v0,9d0040f8 <_do_print_fF+0x7c8>
9d003f5c:	26310007 	addiu	s1,s1,7
9d003f60:	8e350000 	lw	s5,0(s1)
9d003f64:	0000a021 	move	s4,zero
9d003f68:	26310004 	addiu	s1,s1,4
9d003f6c:	0b400f16 	j	9d003c58 <_do_print_fF+0x328>
9d003f70:	afa0006c 	sw	zero,108(sp)
9d003f74:	24040025 	li	a0,37
9d003f78:	0f401c1b 	jal	9d00706c <fputc>
9d003f7c:	02402821 	move	a1,s2
9d003f80:	27de0002 	addiu	s8,s8,2
9d003f84:	0b400e60 	j	9d003980 <_do_print_fF+0x50>
9d003f88:	26100001 	addiu	s0,s0,1
9d003f8c:	82820001 	lb	v0,1(s4)
9d003f90:	36738000 	ori	s3,s3,0x8000
9d003f94:	0b400ebc 	j	9d003af0 <_do_print_fF+0x1c0>
9d003f98:	26940001 	addiu	s4,s4,1
9d003f9c:	2402ffff 	li	v0,-1
9d003fa0:	8fbf009c 	lw	ra,156(sp)
9d003fa4:	8fbe0098 	lw	s8,152(sp)
9d003fa8:	8fb70094 	lw	s7,148(sp)
9d003fac:	8fb60090 	lw	s6,144(sp)
9d003fb0:	8fb5008c 	lw	s5,140(sp)
9d003fb4:	8fb40088 	lw	s4,136(sp)
9d003fb8:	8fb30084 	lw	s3,132(sp)
9d003fbc:	8fb20080 	lw	s2,128(sp)
9d003fc0:	8fb1007c 	lw	s1,124(sp)
9d003fc4:	8fb00078 	lw	s0,120(sp)
9d003fc8:	03e00008 	jr	ra
9d003fcc:	27bd00a0 	addiu	sp,sp,160
9d003fd0:	8fa2006c 	lw	v0,108(sp)
9d003fd4:	5440ff4e 	bnezl	v0,9d003d10 <_do_print_fF+0x3e0>
9d003fd8:	2463ffff 	addiu	v1,v1,-1
9d003fdc:	8fa40060 	lw	a0,96(sp)
9d003fe0:	30820003 	andi	v0,a0,0x3
9d003fe4:	1040ff4a 	beqz	v0,9d003d10 <_do_print_fF+0x3e0>
9d003fe8:	00000000 	nop
9d003fec:	0b400f44 	j	9d003d10 <_do_print_fF+0x3e0>
9d003ff0:	2463ffff 	addiu	v1,v1,-1
9d003ff4:	00031823 	negu	v1,v1
9d003ff8:	0003202b 	sltu	a0,zero,v1
9d003ffc:	00021023 	negu	v0,v0
9d004000:	0060a821 	move	s5,v1
9d004004:	0044a023 	subu	s4,v0,a0
9d004008:	24020001 	li	v0,1
9d00400c:	1680ff14 	bnez	s4,9d003c60 <_do_print_fF+0x330>
9d004010:	afa2006c 	sw	v0,108(sp)
9d004014:	12a0006a 	beqz	s5,9d0041c0 <_do_print_fF+0x890>
9d004018:	02a06821 	move	t5,s5
9d00401c:	27a40057 	addiu	a0,sp,87
9d004020:	afa40068 	sw	a0,104(sp)
9d004024:	00809821 	move	s3,a0
9d004028:	3c02cccc 	lui	v0,0xcccc
9d00402c:	3442cccd 	ori	v0,v0,0xcccd
9d004030:	01a20019 	multu	t5,v0
9d004034:	00001810 	mfhi	v1
9d004038:	2673ffff 	addiu	s3,s3,-1
9d00403c:	26f7ffff 	addiu	s7,s7,-1
9d004040:	000310c2 	srl	v0,v1,0x3
9d004044:	00022040 	sll	a0,v0,0x1
9d004048:	000210c0 	sll	v0,v0,0x3
9d00404c:	00821021 	addu	v0,a0,v0
9d004050:	01a21023 	subu	v0,t5,v0
9d004054:	24420030 	addiu	v0,v0,48
9d004058:	000368c2 	srl	t5,v1,0x3
9d00405c:	15a0fff2 	bnez	t5,9d004028 <_do_print_fF+0x6f8>
9d004060:	a2620001 	sb	v0,1(s3)
9d004064:	0b400f30 	j	9d003cc0 <_do_print_fF+0x390>
9d004068:	26e5ffff 	addiu	a1,s7,-1
9d00406c:	0b400fa4 	j	9d003e90 <_do_print_fF+0x560>
9d004070:	26940001 	addiu	s4,s4,1
9d004074:	afb30060 	sw	s3,96(sp)
9d004078:	00002821 	move	a1,zero
9d00407c:	0b400f07 	j	9d003c1c <_do_print_fF+0x2ec>
9d004080:	24170001 	li	s7,1
9d004084:	2402002d 	li	v0,45
9d004088:	a2620000 	sb	v0,0(s3)
9d00408c:	2673ffff 	addiu	s3,s3,-1
9d004090:	26650001 	addiu	a1,s3,1
9d004094:	8fa20060 	lw	v0,96(sp)
9d004098:	afa20010 	sw	v0,16(sp)
9d00409c:	02402021 	move	a0,s2
9d0040a0:	27a60058 	addiu	a2,sp,88
9d0040a4:	00c53023 	subu	a2,a2,a1
9d0040a8:	0f4019ba 	jal	9d0066e8 <.LFE0>
9d0040ac:	02c03821 	move	a3,s6
9d0040b0:	0b400e60 	j	9d003980 <_do_print_fF+0x50>
9d0040b4:	02028021 	addu	s0,s0,v0
9d0040b8:	8e370000 	lw	s7,0(s1)
9d0040bc:	26310004 	addiu	s1,s1,4
9d0040c0:	26830002 	addiu	v1,s4,2
9d0040c4:	82820002 	lb	v0,2(s4)
9d0040c8:	06e1fe80 	bgez	s7,9d003acc <_do_print_fF+0x19c>
9d0040cc:	0060a021 	move	s4,v1
9d0040d0:	0b400eb3 	j	9d003acc <_do_print_fF+0x19c>
9d0040d4:	2417ffff 	li	s7,-1
9d0040d8:	36730001 	ori	s3,s3,0x1
9d0040dc:	26940001 	addiu	s4,s4,1
9d0040e0:	0b400fa4 	j	9d003e90 <_do_print_fF+0x560>
9d0040e4:	26940001 	addiu	s4,s4,1
9d0040e8:	36738000 	ori	s3,s3,0x8000
9d0040ec:	26940001 	addiu	s4,s4,1
9d0040f0:	0b400fa4 	j	9d003e90 <_do_print_fF+0x560>
9d0040f4:	26940001 	addiu	s4,s4,1
9d0040f8:	2402fff8 	li	v0,-8
9d0040fc:	02221024 	and	v0,s1,v0
9d004100:	24510008 	addiu	s1,v0,8
9d004104:	8c550000 	lw	s5,0(v0)
9d004108:	8c540004 	lw	s4,4(v0)
9d00410c:	0b400f16 	j	9d003c58 <_do_print_fF+0x328>
9d004110:	afa0006c 	sw	zero,108(sp)
9d004114:	2402fff8 	li	v0,-8
9d004118:	02228824 	and	s1,s1,v0
9d00411c:	8e230000 	lw	v1,0(s1)
9d004120:	8e220004 	lw	v0,4(s1)
9d004124:	26310008 	addiu	s1,s1,8
9d004128:	0060a821 	move	s5,v1
9d00412c:	0441fec9 	bgez	v0,9d003c54 <_do_print_fF+0x324>
9d004130:	0040a021 	move	s4,v0
9d004134:	0b400ffe 	j	9d003ff8 <_do_print_fF+0x6c8>
9d004138:	00031823 	negu	v1,v1
9d00413c:	14400016 	bnez	v0,9d004198 <_do_print_fF+0x868>
9d004140:	8e230000 	lw	v1,0(s1)
9d004144:	32730001 	andi	s3,s3,0x1
9d004148:	00001021 	move	v0,zero
9d00414c:	12600017 	beqz	s3,9d0041ac <_do_print_fF+0x87c>
9d004150:	26310004 	addiu	s1,s1,4
9d004154:	a0700000 	sb	s0,0(v1)
9d004158:	0b400e60 	j	9d003980 <_do_print_fF+0x50>
9d00415c:	02028021 	addu	s0,s0,v0
9d004160:	8e220000 	lw	v0,0(s1)
9d004164:	00101fc3 	sra	v1,s0,0x1f
9d004168:	26310004 	addiu	s1,s1,4
9d00416c:	ac500000 	sw	s0,0(v0)
9d004170:	ac430004 	sw	v1,4(v0)
9d004174:	00001021 	move	v0,zero
9d004178:	0b400e60 	j	9d003980 <_do_print_fF+0x50>
9d00417c:	02028021 	addu	s0,s0,v0
9d004180:	00a02021 	move	a0,a1
9d004184:	0f401c94 	jal	9d007250 <strlen>
9d004188:	afa50070 	sw	a1,112(sp)
9d00418c:	00403021 	move	a2,v0
9d004190:	0b400f80 	j	9d003e00 <_do_print_fF+0x4d0>
9d004194:	8fa50070 	lw	a1,112(sp)
9d004198:	00001021 	move	v0,zero
9d00419c:	26310004 	addiu	s1,s1,4
9d0041a0:	a4700000 	sh	s0,0(v1)
9d0041a4:	0b400e60 	j	9d003980 <_do_print_fF+0x50>
9d0041a8:	02028021 	addu	s0,s0,v0
9d0041ac:	ac700000 	sw	s0,0(v1)
9d0041b0:	0b400e60 	j	9d003980 <_do_print_fF+0x50>
9d0041b4:	02028021 	addu	s0,s0,v0
9d0041b8:	0b400f80 	j	9d003e00 <_do_print_fF+0x4d0>
9d0041bc:	00003021 	move	a2,zero
9d0041c0:	27a30057 	addiu	v1,sp,87
9d0041c4:	afa30068 	sw	v1,104(sp)
9d0041c8:	0b400f30 	j	9d003cc0 <_do_print_fF+0x390>
9d0041cc:	00609821 	move	s3,v1

Disassembly of section .text._fconvert:

9d0041d0 <_fconvert>:
9d0041d0:	27bdfda8 	addiu	sp,sp,-600
9d0041d4:	afbf0254 	sw	ra,596(sp)
9d0041d8:	afbe0250 	sw	s8,592(sp)
9d0041dc:	afb7024c 	sw	s7,588(sp)
9d0041e0:	afb60248 	sw	s6,584(sp)
9d0041e4:	afb50244 	sw	s5,580(sp)
9d0041e8:	afb40240 	sw	s4,576(sp)
9d0041ec:	afb3023c 	sw	s3,572(sp)
9d0041f0:	afb20238 	sw	s2,568(sp)
9d0041f4:	afb10234 	sw	s1,564(sp)
9d0041f8:	afb00230 	sw	s0,560(sp)
9d0041fc:	8fb50268 	lw	s5,616(sp)
9d004200:	afa40258 	sw	a0,600(sp)
9d004204:	00a02021 	move	a0,a1
9d004208:	afa60260 	sw	a2,608(sp)
9d00420c:	00e0b821 	move	s7,a3
9d004210:	97a3026c 	lhu	v1,620(sp)
9d004214:	2402ffff 	li	v0,-1
9d004218:	12a2010c 	beq	s5,v0,9d00464c <_fconvert+0x47c>
9d00421c:	afa30220 	sw	v1,544(sp)
9d004220:	2aa20028 	slti	v0,s5,40
9d004224:	104000a3 	beqz	v0,9d0044b4 <_fconvert+0x2e4>
9d004228:	afa00224 	sw	zero,548(sp)
9d00422c:	a3a00011 	sb	zero,17(sp)
9d004230:	04810005 	bgez	a0,9d004248 <_fconvert+0x78>
9d004234:	afa00228 	sw	zero,552(sp)
9d004238:	3c028000 	lui	v0,0x8000
9d00423c:	00442026 	xor	a0,v0,a0
9d004240:	2403002d 	li	v1,45
9d004244:	afa30228 	sw	v1,552(sp)
9d004248:	0f401b86 	jal	9d006e18 <fpmodf>
9d00424c:	27a5021c 	addiu	a1,sp,540
9d004250:	0040b021 	move	s6,v0
9d004254:	8fbe021c 	lw	s8,540(sp)
9d004258:	00002821 	move	a1,zero
9d00425c:	0f401c46 	jal	9d007118 <__eqsf2>
9d004260:	03c02021 	move	a0,s8
9d004264:	10400119 	beqz	v0,9d0046cc <_fconvert+0x4fc>
9d004268:	3c029d00 	lui	v0,0x9d00
9d00426c:	3c109d00 	lui	s0,0x9d00
9d004270:	8e1277b0 	lw	s2,30640(s0)
9d004274:	8c5477b4 	lw	s4,30644(v0)
9d004278:	00008821 	move	s1,zero
9d00427c:	27b00210 	addiu	s0,sp,528
9d004280:	02409821 	move	s3,s2
9d004284:	03c02021 	move	a0,s8
9d004288:	0f401781 	jal	9d005e04 <__divsf3>
9d00428c:	02402821 	move	a1,s2
9d004290:	00402021 	move	a0,v0
9d004294:	0f401b86 	jal	9d006e18 <fpmodf>
9d004298:	27a5021c 	addiu	a1,sp,540
9d00429c:	00402021 	move	a0,v0
9d0042a0:	02802821 	move	a1,s4
9d0042a4:	0f401655 	jal	9d005954 <__addsf3>
9d0042a8:	afa20218 	sw	v0,536(sp)
9d0042ac:	00402021 	move	a0,v0
9d0042b0:	0f40188e 	jal	9d006238 <__mulsf3>
9d0042b4:	02602821 	move	a1,s3
9d0042b8:	0f401d3f 	jal	9d0074fc <__fixsfsi>
9d0042bc:	00402021 	move	a0,v0
9d0042c0:	8fbe021c 	lw	s8,540(sp)
9d0042c4:	2610ffff 	addiu	s0,s0,-1
9d0042c8:	24420030 	addiu	v0,v0,48
9d0042cc:	03c02021 	move	a0,s8
9d0042d0:	00002821 	move	a1,zero
9d0042d4:	a2020001 	sb	v0,1(s0)
9d0042d8:	0f401c46 	jal	9d007118 <__eqsf2>
9d0042dc:	26310001 	addiu	s1,s1,1
9d0042e0:	1440ffe9 	bnez	v0,9d004288 <_fconvert+0xb8>
9d0042e4:	03c02021 	move	a0,s8
9d0042e8:	24020066 	li	v0,102
9d0042ec:	8fa30260 	lw	v1,608(sp)
9d0042f0:	14620038 	bne	v1,v0,9d0043d4 <_fconvert+0x204>
9d0042f4:	00009821 	move	s3,zero
9d0042f8:	12200077 	beqz	s1,9d0044d8 <_fconvert+0x308>
9d0042fc:	24020030 	li	v0,48
9d004300:	26020001 	addiu	v0,s0,1
9d004304:	27a50211 	addiu	a1,sp,529
9d004308:	0045182b 	sltu	v1,v0,a1
9d00430c:	106000fd 	beqz	v1,9d004704 <_fconvert+0x534>
9d004310:	27b20012 	addiu	s2,sp,18
9d004314:	02401821 	move	v1,s2
9d004318:	80440000 	lb	a0,0(v0)
9d00431c:	24630001 	addiu	v1,v1,1
9d004320:	24420001 	addiu	v0,v0,1
9d004324:	1445fffc 	bne	v0,a1,9d004318 <_fconvert+0x148>
9d004328:	a064ffff 	sb	a0,-1(v1)
9d00432c:	03b08023 	subu	s0,sp,s0
9d004330:	26100210 	addiu	s0,s0,528
9d004334:	02508021 	addu	s0,s2,s0
9d004338:	12a0006c 	beqz	s5,9d0044ec <_fconvert+0x31c>
9d00433c:	8fa30220 	lw	v1,544(sp)
9d004340:	02c02021 	move	a0,s6
9d004344:	00002821 	move	a1,zero
9d004348:	26130001 	addiu	s3,s0,1
9d00434c:	2402002e 	li	v0,46
9d004350:	0f401c46 	jal	9d007118 <__eqsf2>
9d004354:	a2020000 	sb	v0,0(s0)
9d004358:	104000b4 	beqz	v0,9d00462c <_fconvert+0x45c>
9d00435c:	26a3ffff 	addiu	v1,s5,-1
9d004360:	3c109d00 	lui	s0,0x9d00
9d004364:	0b4010df 	j	9d00437c <_fconvert+0x1ac>
9d004368:	8e1177b0 	lw	s1,30640(s0)
9d00436c:	0f401c46 	jal	9d007118 <__eqsf2>
9d004370:	00000000 	nop
9d004374:	104000ad 	beqz	v0,9d00462c <_fconvert+0x45c>
9d004378:	26a3ffff 	addiu	v1,s5,-1
9d00437c:	02c02021 	move	a0,s6
9d004380:	0f40188e 	jal	9d006238 <__mulsf3>
9d004384:	02202821 	move	a1,s1
9d004388:	00402021 	move	a0,v0
9d00438c:	0f401b86 	jal	9d006e18 <fpmodf>
9d004390:	27a50218 	addiu	a1,sp,536
9d004394:	0040b021 	move	s6,v0
9d004398:	8fa40218 	lw	a0,536(sp)
9d00439c:	26730001 	addiu	s3,s3,1
9d0043a0:	0f401d3f 	jal	9d0074fc <__fixsfsi>
9d0043a4:	26b5ffff 	addiu	s5,s5,-1
9d0043a8:	02c02021 	move	a0,s6
9d0043ac:	00002821 	move	a1,zero
9d0043b0:	24420030 	addiu	v0,v0,48
9d0043b4:	16a0ffed 	bnez	s5,9d00436c <_fconvert+0x19c>
9d0043b8:	a262ffff 	sb	v0,-1(s3)
9d0043bc:	02c02021 	move	a0,s6
9d0043c0:	0f401c46 	jal	9d007118 <__eqsf2>
9d0043c4:	00002821 	move	a1,zero
9d0043c8:	54400051 	bnezl	v0,9d004510 <_fconvert+0x340>
9d0043cc:	8e0577b0 	lw	a1,30640(s0)
9d0043d0:	02729823 	subu	s3,s3,s2
9d0043d4:	83a40011 	lb	a0,17(sp)
9d0043d8:	27a20011 	addiu	v0,sp,17
9d0043dc:	27a30012 	addiu	v1,sp,18
9d0043e0:	0064100a 	movz	v0,v1,a0
9d0043e4:	8fa30228 	lw	v1,552(sp)
9d0043e8:	1060002a 	beqz	v1,9d004494 <_fconvert+0x2c4>
9d0043ec:	8fa40220 	lw	a0,544(sp)
9d0043f0:	2452ffff 	addiu	s2,v0,-1
9d0043f4:	a043ffff 	sb	v1,-1(v0)
9d0043f8:	26730001 	addiu	s3,s3,1
9d0043fc:	8fa30220 	lw	v1,544(sp)
9d004400:	30710008 	andi	s1,v1,0x8
9d004404:	3231ffff 	andi	s1,s1,0xffff
9d004408:	8fa30224 	lw	v1,548(sp)
9d00440c:	16200004 	bnez	s1,9d004420 <_fconvert+0x250>
9d004410:	02638021 	addu	s0,s3,v1
9d004414:	0217102a 	slt	v0,s0,s7
9d004418:	1440005a 	bnez	v0,9d004584 <_fconvert+0x3b4>
9d00441c:	8fa30220 	lw	v1,544(sp)
9d004420:	02402021 	move	a0,s2
9d004424:	02602821 	move	a1,s3
9d004428:	0f401d7a 	jal	9d0075e8 <__sputn>
9d00442c:	8fa60258 	lw	a2,600(sp)
9d004430:	2412ffff 	li	s2,-1
9d004434:	10520008 	beq	v0,s2,9d004458 <_fconvert+0x288>
9d004438:	8fa30224 	lw	v1,548(sp)
9d00443c:	14600071 	bnez	v1,9d004604 <_fconvert+0x434>
9d004440:	8fa40258 	lw	a0,600(sp)
9d004444:	12200005 	beqz	s1,9d00445c <_fconvert+0x28c>
9d004448:	0217102a 	slt	v0,s0,s7
9d00444c:	0217102a 	slt	v0,s0,s7
9d004450:	14400081 	bnez	v0,9d004658 <_fconvert+0x488>
9d004454:	8fa40258 	lw	a0,600(sp)
9d004458:	0217102a 	slt	v0,s0,s7
9d00445c:	0202b80a 	movz	s7,s0,v0
9d004460:	02e01021 	move	v0,s7
9d004464:	8fbf0254 	lw	ra,596(sp)
9d004468:	8fbe0250 	lw	s8,592(sp)
9d00446c:	8fb7024c 	lw	s7,588(sp)
9d004470:	8fb60248 	lw	s6,584(sp)
9d004474:	8fb50244 	lw	s5,580(sp)
9d004478:	8fb40240 	lw	s4,576(sp)
9d00447c:	8fb3023c 	lw	s3,572(sp)
9d004480:	8fb20238 	lw	s2,568(sp)
9d004484:	8fb10234 	lw	s1,564(sp)
9d004488:	8fb00230 	lw	s0,560(sp)
9d00448c:	03e00008 	jr	ra
9d004490:	27bd0258 	addiu	sp,sp,600
9d004494:	30830002 	andi	v1,a0,0x2
9d004498:	10600052 	beqz	v1,9d0045e4 <_fconvert+0x414>
9d00449c:	8fa40220 	lw	a0,544(sp)
9d0044a0:	2452ffff 	addiu	s2,v0,-1
9d0044a4:	2403002b 	li	v1,43
9d0044a8:	a043ffff 	sb	v1,-1(v0)
9d0044ac:	0b4010ff 	j	9d0043fc <_fconvert+0x22c>
9d0044b0:	26730001 	addiu	s3,s3,1
9d0044b4:	2403ffdf 	li	v1,-33
9d0044b8:	00c31824 	and	v1,a2,v1
9d0044bc:	24020047 	li	v0,71
9d0044c0:	1062007d 	beq	v1,v0,9d0046b8 <_fconvert+0x4e8>
9d0044c4:	8fa30220 	lw	v1,544(sp)
9d0044c8:	26b5ffd9 	addiu	s5,s5,-39
9d0044cc:	afb50224 	sw	s5,548(sp)
9d0044d0:	0b40108b 	j	9d00422c <_fconvert+0x5c>
9d0044d4:	24150027 	li	s5,39
9d0044d8:	a3a20012 	sb	v0,18(sp)
9d0044dc:	27b00013 	addiu	s0,sp,19
9d0044e0:	16a0ff97 	bnez	s5,9d004340 <_fconvert+0x170>
9d0044e4:	27b20012 	addiu	s2,sp,18
9d0044e8:	8fa30220 	lw	v1,544(sp)
9d0044ec:	30620800 	andi	v0,v1,0x800
9d0044f0:	14400079 	bnez	v0,9d0046d8 <_fconvert+0x508>
9d0044f4:	02c02021 	move	a0,s6
9d0044f8:	0f401c46 	jal	9d007118 <__eqsf2>
9d0044fc:	00002821 	move	a1,zero
9d004500:	1040ffb3 	beqz	v0,9d0043d0 <_fconvert+0x200>
9d004504:	02009821 	move	s3,s0
9d004508:	3c109d00 	lui	s0,0x9d00
9d00450c:	8e0577b0 	lw	a1,30640(s0)
9d004510:	02c02021 	move	a0,s6
9d004514:	0f40188e 	jal	9d006238 <__mulsf3>
9d004518:	2670ffff 	addiu	s0,s3,-1
9d00451c:	00402021 	move	a0,v0
9d004520:	0f401b86 	jal	9d006e18 <fpmodf>
9d004524:	27a50214 	addiu	a1,sp,532
9d004528:	3c029d00 	lui	v0,0x9d00
9d00452c:	8c4477b8 	lw	a0,30648(v0)
9d004530:	0f401c46 	jal	9d007118 <__eqsf2>
9d004534:	8fa50214 	lw	a1,532(sp)
9d004538:	2404002e 	li	a0,46
9d00453c:	0440000b 	bltz	v0,9d00456c <_fconvert+0x39c>
9d004540:	24050030 	li	a1,48
9d004544:	0b4010f5 	j	9d0043d4 <_fconvert+0x204>
9d004548:	02729823 	subu	s3,s3,s2
9d00454c:	24420001 	addiu	v0,v0,1
9d004550:	7c021420 	seb	v0,v0
9d004554:	2843003a 	slti	v1,v0,58
9d004558:	54600068 	bnezl	v1,9d0046fc <_fconvert+0x52c>
9d00455c:	a2020000 	sb	v0,0(s0)
9d004560:	1212006a 	beq	s0,s2,9d00470c <_fconvert+0x53c>
9d004564:	a2050000 	sb	a1,0(s0)
9d004568:	2610ffff 	addiu	s0,s0,-1
9d00456c:	82020000 	lb	v0,0(s0)
9d004570:	5444fff7 	bnel	v0,a0,9d004550 <_fconvert+0x380>
9d004574:	24420001 	addiu	v0,v0,1
9d004578:	8202ffff 	lb	v0,-1(s0)
9d00457c:	0b401153 	j	9d00454c <_fconvert+0x37c>
9d004580:	2610ffff 	addiu	s0,s0,-1
9d004584:	30620004 	andi	v0,v1,0x4
9d004588:	8fa40258 	lw	a0,600(sp)
9d00458c:	14400045 	bnez	v0,9d0046a4 <_fconvert+0x4d4>
9d004590:	02f02823 	subu	a1,s7,s0
9d004594:	3c069d00 	lui	a2,0x9d00
9d004598:	0f401c6d 	jal	9d0071b4 <repl>
9d00459c:	24c67790 	addiu	a2,a2,30608
9d0045a0:	2403ffff 	li	v1,-1
9d0045a4:	1443ff9e 	bne	v0,v1,9d004420 <_fconvert+0x250>
9d0045a8:	0217102a 	slt	v0,s0,s7
9d0045ac:	0202b80a 	movz	s7,s0,v0
9d0045b0:	02e01021 	move	v0,s7
9d0045b4:	8fbf0254 	lw	ra,596(sp)
9d0045b8:	8fbe0250 	lw	s8,592(sp)
9d0045bc:	8fb7024c 	lw	s7,588(sp)
9d0045c0:	8fb60248 	lw	s6,584(sp)
9d0045c4:	8fb50244 	lw	s5,580(sp)
9d0045c8:	8fb40240 	lw	s4,576(sp)
9d0045cc:	8fb3023c 	lw	s3,572(sp)
9d0045d0:	8fb20238 	lw	s2,568(sp)
9d0045d4:	8fb10234 	lw	s1,564(sp)
9d0045d8:	8fb00230 	lw	s0,560(sp)
9d0045dc:	03e00008 	jr	ra
9d0045e0:	27bd0258 	addiu	sp,sp,600
9d0045e4:	30830001 	andi	v1,a0,0x1
9d0045e8:	1060ff84 	beqz	v1,9d0043fc <_fconvert+0x22c>
9d0045ec:	00409021 	move	s2,v0
9d0045f0:	2452ffff 	addiu	s2,v0,-1
9d0045f4:	24030020 	li	v1,32
9d0045f8:	a043ffff 	sb	v1,-1(v0)
9d0045fc:	0b4010ff 	j	9d0043fc <_fconvert+0x22c>
9d004600:	26730001 	addiu	s3,s3,1
9d004604:	8fa50224 	lw	a1,548(sp)
9d004608:	3c069d00 	lui	a2,0x9d00
9d00460c:	0f401c6d 	jal	9d0071b4 <repl>
9d004610:	24c67770 	addiu	a2,a2,30576
9d004614:	1052ff91 	beq	v0,s2,9d00445c <_fconvert+0x28c>
9d004618:	0217102a 	slt	v0,s0,s7
9d00461c:	5620ff8c 	bnezl	s1,9d004450 <_fconvert+0x280>
9d004620:	0217102a 	slt	v0,s0,s7
9d004624:	0b401118 	j	9d004460 <_fconvert+0x290>
9d004628:	0202b80a 	movz	s7,s0,v0
9d00462c:	24630001 	addiu	v1,v1,1
9d004630:	02631821 	addu	v1,s3,v1
9d004634:	24020030 	li	v0,48
9d004638:	26730001 	addiu	s3,s3,1
9d00463c:	1663fffe 	bne	s3,v1,9d004638 <_fconvert+0x468>
9d004640:	a262ffff 	sb	v0,-1(s3)
9d004644:	0b4010f5 	j	9d0043d4 <_fconvert+0x204>
9d004648:	02729823 	subu	s3,s3,s2
9d00464c:	afa00224 	sw	zero,548(sp)
9d004650:	0b40108b 	j	9d00422c <_fconvert+0x5c>
9d004654:	24150006 	li	s5,6
9d004658:	02f02823 	subu	a1,s7,s0
9d00465c:	3c069d00 	lui	a2,0x9d00
9d004660:	0f401c6d 	jal	9d0071b4 <repl>
9d004664:	24c67790 	addiu	a2,a2,30608
9d004668:	0217102a 	slt	v0,s0,s7
9d00466c:	0202b80a 	movz	s7,s0,v0
9d004670:	02e01021 	move	v0,s7
9d004674:	8fbf0254 	lw	ra,596(sp)
9d004678:	8fbe0250 	lw	s8,592(sp)
9d00467c:	8fb7024c 	lw	s7,588(sp)
9d004680:	8fb60248 	lw	s6,584(sp)
9d004684:	8fb50244 	lw	s5,580(sp)
9d004688:	8fb40240 	lw	s4,576(sp)
9d00468c:	8fb3023c 	lw	s3,572(sp)
9d004690:	8fb20238 	lw	s2,568(sp)
9d004694:	8fb10234 	lw	s1,564(sp)
9d004698:	8fb00230 	lw	s0,560(sp)
9d00469c:	03e00008 	jr	ra
9d0046a0:	27bd0258 	addiu	sp,sp,600
9d0046a4:	3c069d00 	lui	a2,0x9d00
9d0046a8:	0f401c6d 	jal	9d0071b4 <repl>
9d0046ac:	24c67770 	addiu	a2,a2,30576
9d0046b0:	0b401169 	j	9d0045a4 <_fconvert+0x3d4>
9d0046b4:	2403ffff 	li	v1,-1
9d0046b8:	30620800 	andi	v0,v1,0x800
9d0046bc:	5440ff83 	bnezl	v0,9d0044cc <_fconvert+0x2fc>
9d0046c0:	26b5ffd9 	addiu	s5,s5,-39
9d0046c4:	0b40108b 	j	9d00422c <_fconvert+0x5c>
9d0046c8:	24150027 	li	s5,39
9d0046cc:	00008821 	move	s1,zero
9d0046d0:	0b4010ba 	j	9d0042e8 <_fconvert+0x118>
9d0046d4:	27b00210 	addiu	s0,sp,528
9d0046d8:	00002821 	move	a1,zero
9d0046dc:	26130001 	addiu	s3,s0,1
9d0046e0:	2402002e 	li	v0,46
9d0046e4:	0f401c46 	jal	9d007118 <__eqsf2>
9d0046e8:	a2020000 	sb	v0,0(s0)
9d0046ec:	5440ff87 	bnezl	v0,9d00450c <_fconvert+0x33c>
9d0046f0:	3c109d00 	lui	s0,0x9d00
9d0046f4:	0b4010f5 	j	9d0043d4 <_fconvert+0x204>
9d0046f8:	02729823 	subu	s3,s3,s2
9d0046fc:	0b4010f5 	j	9d0043d4 <_fconvert+0x204>
9d004700:	02729823 	subu	s3,s3,s2
9d004704:	0b4010ce 	j	9d004338 <_fconvert+0x168>
9d004708:	02408021 	move	s0,s2
9d00470c:	24020031 	li	v0,49
9d004710:	a3a20011 	sb	v0,17(sp)
9d004714:	27b20011 	addiu	s2,sp,17
9d004718:	0b4010f5 	j	9d0043d4 <_fconvert+0x204>
9d00471c:	02729823 	subu	s3,s3,s2

Disassembly of section .text:

9d004720 <__umoddi3>:
9d004720:	00c04021 	move	t0,a2
9d004724:	00804821 	move	t1,a0
9d004728:	14e0003b 	bnez	a3,9d004818 <__umoddi3+0xf8>
9d00472c:	00a01821 	move	v1,a1
9d004730:	00a6102b 	sltu	v0,a1,a2
9d004734:	10400048 	beqz	v0,9d004858 <__umoddi3+0x138>
9d004738:	70c21020 	clz	v0,a2
9d00473c:	50400008 	beqzl	v0,9d004760 <__umoddi3+0x40>
9d004740:	00083402 	srl	a2,t0,0x10
9d004744:	00021823 	negu	v1,v0
9d004748:	00452804 	sllv	a1,a1,v0
9d00474c:	00641806 	srlv	v1,a0,v1
9d004750:	00464004 	sllv	t0,a2,v0
9d004754:	00651825 	or	v1,v1,a1
9d004758:	00444804 	sllv	t1,a0,v0
9d00475c:	00083402 	srl	a2,t0,0x10
9d004760:	0066001b 	divu	zero,v1,a2
9d004764:	00c001f4 	teq	a2,zero,0x7
9d004768:	00002010 	mfhi	a0
9d00476c:	00005812 	mflo	t3
9d004770:	310cffff 	andi	t4,t0,0xffff
9d004774:	00095402 	srl	t2,t1,0x10
9d004778:	716c5802 	mul	t3,t3,t4
9d00477c:	00042400 	sll	a0,a0,0x10
9d004780:	008a5025 	or	t2,a0,t2
9d004784:	014b682b 	sltu	t5,t2,t3
9d004788:	0066001b 	divu	zero,v1,a2
9d00478c:	00c001f4 	teq	a2,zero,0x7
9d004790:	51a00009 	beqzl	t5,9d0047b8 <__umoddi3+0x98>
9d004794:	014b5023 	subu	t2,t2,t3
9d004798:	01485021 	addu	t2,t2,t0
9d00479c:	0148182b 	sltu	v1,t2,t0
9d0047a0:	54600005 	bnezl	v1,9d0047b8 <__umoddi3+0x98>
9d0047a4:	014b5023 	subu	t2,t2,t3
9d0047a8:	014b202b 	sltu	a0,t2,t3
9d0047ac:	01481821 	addu	v1,t2,t0
9d0047b0:	0064500b 	movn	t2,v1,a0
9d0047b4:	014b5023 	subu	t2,t2,t3
9d0047b8:	3123ffff 	andi	v1,t1,0xffff
9d0047bc:	0146001b 	divu	zero,t2,a2
9d0047c0:	00c001f4 	teq	a2,zero,0x7
9d0047c4:	00004810 	mfhi	t1
9d0047c8:	00002012 	mflo	a0
9d0047cc:	708c2002 	mul	a0,a0,t4
9d0047d0:	00094c00 	sll	t1,t1,0x10
9d0047d4:	01234825 	or	t1,t1,v1
9d0047d8:	0124182b 	sltu	v1,t1,a0
9d0047dc:	0146001b 	divu	zero,t2,a2
9d0047e0:	00c001f4 	teq	a2,zero,0x7
9d0047e4:	50600009 	beqzl	v1,9d00480c <__umoddi3+0xec>
9d0047e8:	01244823 	subu	t1,t1,a0
9d0047ec:	01284821 	addu	t1,t1,t0
9d0047f0:	0128182b 	sltu	v1,t1,t0
9d0047f4:	54600005 	bnezl	v1,9d00480c <__umoddi3+0xec>
9d0047f8:	01244823 	subu	t1,t1,a0
9d0047fc:	0124182b 	sltu	v1,t1,a0
9d004800:	01284021 	addu	t0,t1,t0
9d004804:	0103480b 	movn	t1,t0,v1
9d004808:	01244823 	subu	t1,t1,a0
9d00480c:	00491006 	srlv	v0,t1,v0
9d004810:	03e00008 	jr	ra
9d004814:	00001821 	move	v1,zero
9d004818:	00a7102b 	sltu	v0,a1,a3
9d00481c:	14400047 	bnez	v0,9d00493c <__umoddi3+0x21c>
9d004820:	70ea5020 	clz	t2,a3
9d004824:	15400048 	bnez	t2,9d004948 <__umoddi3+0x228>
9d004828:	240b0020 	li	t3,32
9d00482c:	00e5102b 	sltu	v0,a3,a1
9d004830:	14400005 	bnez	v0,9d004848 <__umoddi3+0x128>
9d004834:	00861023 	subu	v0,a0,a2
9d004838:	0086402b 	sltu	t0,a0,a2
9d00483c:	15000089 	bnez	t0,9d004a64 <__umoddi3+0x344>
9d004840:	00801021 	move	v0,a0
9d004844:	00861023 	subu	v0,a0,a2
9d004848:	00a72823 	subu	a1,a1,a3
9d00484c:	0082202b 	sltu	a0,a0,v0
9d004850:	03e00008 	jr	ra
9d004854:	00a41823 	subu	v1,a1,a0
9d004858:	14c00006 	bnez	a2,9d004874 <__umoddi3+0x154>
9d00485c:	71021020 	clz	v0,t0
9d004860:	24020001 	li	v0,1
9d004864:	0046001b 	divu	zero,v0,a2
9d004868:	00c001f4 	teq	a2,zero,0x7
9d00486c:	00004012 	mflo	t0
9d004870:	71021020 	clz	v0,t0
9d004874:	5440007d 	bnezl	v0,9d004a6c <__umoddi3+0x34c>
9d004878:	00484004 	sllv	t0,t0,v0
9d00487c:	00a82823 	subu	a1,a1,t0
9d004880:	00081c02 	srl	v1,t0,0x10
9d004884:	3107ffff 	andi	a3,t0,0xffff
9d004888:	00092402 	srl	a0,t1,0x10
9d00488c:	00a3001b 	divu	zero,a1,v1
9d004890:	006001f4 	teq	v1,zero,0x7
9d004894:	00005010 	mfhi	t2
9d004898:	00003012 	mflo	a2
9d00489c:	70c73002 	mul	a2,a2,a3
9d0048a0:	000a5400 	sll	t2,t2,0x10
9d0048a4:	01442025 	or	a0,t2,a0
9d0048a8:	0086502b 	sltu	t2,a0,a2
9d0048ac:	00a3001b 	divu	zero,a1,v1
9d0048b0:	006001f4 	teq	v1,zero,0x7
9d0048b4:	51400009 	beqzl	t2,9d0048dc <__umoddi3+0x1bc>
9d0048b8:	00862023 	subu	a0,a0,a2
9d0048bc:	00882021 	addu	a0,a0,t0
9d0048c0:	0088282b 	sltu	a1,a0,t0
9d0048c4:	54a00005 	bnezl	a1,9d0048dc <__umoddi3+0x1bc>
9d0048c8:	00862023 	subu	a0,a0,a2
9d0048cc:	0086502b 	sltu	t2,a0,a2
9d0048d0:	00882821 	addu	a1,a0,t0
9d0048d4:	00aa200b 	movn	a0,a1,t2
9d0048d8:	00862023 	subu	a0,a0,a2
9d0048dc:	3126ffff 	andi	a2,t1,0xffff
9d0048e0:	0083001b 	divu	zero,a0,v1
9d0048e4:	006001f4 	teq	v1,zero,0x7
9d0048e8:	00004810 	mfhi	t1
9d0048ec:	00002812 	mflo	a1
9d0048f0:	70a72802 	mul	a1,a1,a3
9d0048f4:	00094c00 	sll	t1,t1,0x10
9d0048f8:	01264825 	or	t1,t1,a2
9d0048fc:	0125302b 	sltu	a2,t1,a1
9d004900:	0083001b 	divu	zero,a0,v1
9d004904:	006001f4 	teq	v1,zero,0x7
9d004908:	50c00009 	beqzl	a2,9d004930 <__umoddi3+0x210>
9d00490c:	01254823 	subu	t1,t1,a1
9d004910:	01284821 	addu	t1,t1,t0
9d004914:	0128182b 	sltu	v1,t1,t0
9d004918:	54600005 	bnezl	v1,9d004930 <__umoddi3+0x210>
9d00491c:	01254823 	subu	t1,t1,a1
9d004920:	0125182b 	sltu	v1,t1,a1
9d004924:	01284021 	addu	t0,t1,t0
9d004928:	0103480b 	movn	t1,t0,v1
9d00492c:	01254823 	subu	t1,t1,a1
9d004930:	00491006 	srlv	v0,t1,v0
9d004934:	03e00008 	jr	ra
9d004938:	00001821 	move	v1,zero
9d00493c:	00801021 	move	v0,a0
9d004940:	03e00008 	jr	ra
9d004944:	00a01821 	move	v1,a1
9d004948:	016a5823 	subu	t3,t3,t2
9d00494c:	01473804 	sllv	a3,a3,t2
9d004950:	01661006 	srlv	v0,a2,t3
9d004954:	00473825 	or	a3,v0,a3
9d004958:	01656806 	srlv	t5,a1,t3
9d00495c:	00074c02 	srl	t1,a3,0x10
9d004960:	01a9001b 	divu	zero,t5,t1
9d004964:	012001f4 	teq	t1,zero,0x7
9d004968:	00006010 	mfhi	t4
9d00496c:	00001812 	mflo	v1
9d004970:	30eeffff 	andi	t6,a3,0xffff
9d004974:	01452804 	sllv	a1,a1,t2
9d004978:	01641006 	srlv	v0,a0,t3
9d00497c:	00451025 	or	v0,v0,a1
9d004980:	00022c02 	srl	a1,v0,0x10
9d004984:	01463004 	sllv	a2,a2,t2
9d004988:	00004012 	mflo	t0
9d00498c:	706e7802 	mul	t7,v1,t6
9d004990:	000c6400 	sll	t4,t4,0x10
9d004994:	01856025 	or	t4,t4,a1
9d004998:	018f282b 	sltu	a1,t4,t7
9d00499c:	01a9001b 	divu	zero,t5,t1
9d0049a0:	012001f4 	teq	t1,zero,0x7
9d0049a4:	10a0000a 	beqz	a1,9d0049d0 <__umoddi3+0x2b0>
9d0049a8:	01442004 	sllv	a0,a0,t2
9d0049ac:	01876021 	addu	t4,t4,a3
9d0049b0:	0187282b 	sltu	a1,t4,a3
9d0049b4:	14a00006 	bnez	a1,9d0049d0 <__umoddi3+0x2b0>
9d0049b8:	2468ffff 	addiu	t0,v1,-1
9d0049bc:	018f282b 	sltu	a1,t4,t7
9d0049c0:	50a00004 	beqzl	a1,9d0049d4 <__umoddi3+0x2b4>
9d0049c4:	018f6023 	subu	t4,t4,t7
9d0049c8:	2468fffe 	addiu	t0,v1,-2
9d0049cc:	01876021 	addu	t4,t4,a3
9d0049d0:	018f6023 	subu	t4,t4,t7
9d0049d4:	3042ffff 	andi	v0,v0,0xffff
9d0049d8:	0189001b 	divu	zero,t4,t1
9d0049dc:	012001f4 	teq	t1,zero,0x7
9d0049e0:	00002810 	mfhi	a1
9d0049e4:	00001812 	mflo	v1
9d0049e8:	00006812 	mflo	t5
9d0049ec:	706e7002 	mul	t6,v1,t6
9d0049f0:	00052c00 	sll	a1,a1,0x10
9d0049f4:	00a21025 	or	v0,a1,v0
9d0049f8:	004e282b 	sltu	a1,v0,t6
9d0049fc:	0189001b 	divu	zero,t4,t1
9d004a00:	012001f4 	teq	t1,zero,0x7
9d004a04:	50a00006 	beqzl	a1,9d004a20 <__umoddi3+0x300>
9d004a08:	00084400 	sll	t0,t0,0x10
9d004a0c:	00471021 	addu	v0,v0,a3
9d004a10:	0047282b 	sltu	a1,v0,a3
9d004a14:	10a0004c 	beqz	a1,9d004b48 <__umoddi3+0x428>
9d004a18:	246dffff 	addiu	t5,v1,-1
9d004a1c:	00084400 	sll	t0,t0,0x10
9d004a20:	01a84025 	or	t0,t5,t0
9d004a24:	004e1023 	subu	v0,v0,t6
9d004a28:	01060019 	multu	t0,a2
9d004a2c:	00004810 	mfhi	t1
9d004a30:	0049182b 	sltu	v1,v0,t1
9d004a34:	1460003e 	bnez	v1,9d004b30 <__umoddi3+0x410>
9d004a38:	00004012 	mflo	t0
9d004a3c:	1049004b 	beq	v0,t1,9d004b6c <__umoddi3+0x44c>
9d004a40:	00491823 	subu	v1,v0,t1
9d004a44:	00003012 	mflo	a2
9d004a48:	00863023 	subu	a2,a0,a2
9d004a4c:	0086202b 	sltu	a0,a0,a2
9d004a50:	00641823 	subu	v1,v1,a0
9d004a54:	01631004 	sllv	v0,v1,t3
9d004a58:	01463006 	srlv	a2,a2,t2
9d004a5c:	00461025 	or	v0,v0,a2
9d004a60:	01431806 	srlv	v1,v1,t2
9d004a64:	03e00008 	jr	ra
9d004a68:	00000000 	nop
9d004a6c:	24090020 	li	t1,32
9d004a70:	01224823 	subu	t1,t1,v0
9d004a74:	01255006 	srlv	t2,a1,t1
9d004a78:	00081c02 	srl	v1,t0,0x10
9d004a7c:	0143001b 	divu	zero,t2,v1
9d004a80:	006001f4 	teq	v1,zero,0x7
9d004a84:	00003010 	mfhi	a2
9d004a88:	00005812 	mflo	t3
9d004a8c:	3107ffff 	andi	a3,t0,0xffff
9d004a90:	00452804 	sllv	a1,a1,v0
9d004a94:	01244806 	srlv	t1,a0,t1
9d004a98:	01252825 	or	a1,t1,a1
9d004a9c:	00056402 	srl	t4,a1,0x10
9d004aa0:	00444804 	sllv	t1,a0,v0
9d004aa4:	71675802 	mul	t3,t3,a3
9d004aa8:	00063400 	sll	a2,a2,0x10
9d004aac:	01863025 	or	a2,t4,a2
9d004ab0:	00cb202b 	sltu	a0,a2,t3
9d004ab4:	0143001b 	divu	zero,t2,v1
9d004ab8:	006001f4 	teq	v1,zero,0x7
9d004abc:	50800006 	beqzl	a0,9d004ad8 <__umoddi3+0x3b8>
9d004ac0:	00cb3023 	subu	a2,a2,t3
9d004ac4:	00c83021 	addu	a2,a2,t0
9d004ac8:	00c8202b 	sltu	a0,a2,t0
9d004acc:	10800024 	beqz	a0,9d004b60 <__umoddi3+0x440>
9d004ad0:	00cb502b 	sltu	t2,a2,t3
9d004ad4:	00cb3023 	subu	a2,a2,t3
9d004ad8:	30aaffff 	andi	t2,a1,0xffff
9d004adc:	00c3001b 	divu	zero,a2,v1
9d004ae0:	006001f4 	teq	v1,zero,0x7
9d004ae4:	00002010 	mfhi	a0
9d004ae8:	00002812 	mflo	a1
9d004aec:	70a72802 	mul	a1,a1,a3
9d004af0:	00042400 	sll	a0,a0,0x10
9d004af4:	008a2025 	or	a0,a0,t2
9d004af8:	0085502b 	sltu	t2,a0,a1
9d004afc:	00c3001b 	divu	zero,a2,v1
9d004b00:	006001f4 	teq	v1,zero,0x7
9d004b04:	5140ff60 	beqzl	t2,9d004888 <__umoddi3+0x168>
9d004b08:	00852823 	subu	a1,a0,a1
9d004b0c:	00882021 	addu	a0,a0,t0
9d004b10:	0088302b 	sltu	a2,a0,t0
9d004b14:	54c0ff5c 	bnezl	a2,9d004888 <__umoddi3+0x168>
9d004b18:	00852823 	subu	a1,a0,a1
9d004b1c:	0085502b 	sltu	t2,a0,a1
9d004b20:	00883021 	addu	a2,a0,t0
9d004b24:	00ca200b 	movn	a0,a2,t2
9d004b28:	0b401222 	j	9d004888 <__umoddi3+0x168>
9d004b2c:	00852823 	subu	a1,a0,a1
9d004b30:	01063023 	subu	a2,t0,a2
9d004b34:	01271823 	subu	v1,t1,a3
9d004b38:	0106402b 	sltu	t0,t0,a2
9d004b3c:	00681823 	subu	v1,v1,t0
9d004b40:	0b401292 	j	9d004a48 <__umoddi3+0x328>
9d004b44:	00431823 	subu	v1,v0,v1
9d004b48:	004e282b 	sltu	a1,v0,t6
9d004b4c:	50a0ffb4 	beqzl	a1,9d004a20 <__umoddi3+0x300>
9d004b50:	00084400 	sll	t0,t0,0x10
9d004b54:	246dfffe 	addiu	t5,v1,-2
9d004b58:	0b401287 	j	9d004a1c <__umoddi3+0x2fc>
9d004b5c:	00471021 	addu	v0,v0,a3
9d004b60:	00c82021 	addu	a0,a2,t0
9d004b64:	0b4012b5 	j	9d004ad4 <__umoddi3+0x3b4>
9d004b68:	008a300b 	movn	a2,a0,t2
9d004b6c:	0088182b 	sltu	v1,a0,t0
9d004b70:	5460fff0 	bnezl	v1,9d004b34 <__umoddi3+0x414>
9d004b74:	01063023 	subu	a2,t0,a2
9d004b78:	00003012 	mflo	a2
9d004b7c:	0b401292 	j	9d004a48 <__umoddi3+0x328>
9d004b80:	00001821 	move	v1,zero

9d004b84 <__udivdi3>:
9d004b84:	00c04021 	move	t0,a2
9d004b88:	00801021 	move	v0,a0
9d004b8c:	14e0003f 	bnez	a3,9d004c8c <__udivdi3+0x108>
9d004b90:	00a04821 	move	t1,a1
9d004b94:	00a6182b 	sltu	v1,a1,a2
9d004b98:	10600047 	beqz	v1,9d004cb8 <__udivdi3+0x134>
9d004b9c:	70c31820 	clz	v1,a2
9d004ba0:	50600008 	beqzl	v1,9d004bc4 <__udivdi3+0x40>
9d004ba4:	00081c02 	srl	v1,t0,0x10
9d004ba8:	00034823 	negu	t1,v1
9d004bac:	00652804 	sllv	a1,a1,v1
9d004bb0:	01244806 	srlv	t1,a0,t1
9d004bb4:	00664004 	sllv	t0,a2,v1
9d004bb8:	01254825 	or	t1,t1,a1
9d004bbc:	00641004 	sllv	v0,a0,v1
9d004bc0:	00081c02 	srl	v1,t0,0x10
9d004bc4:	0123001b 	divu	zero,t1,v1
9d004bc8:	006001f4 	teq	v1,zero,0x7
9d004bcc:	00006010 	mfhi	t4
9d004bd0:	00005812 	mflo	t3
9d004bd4:	310affff 	andi	t2,t0,0xffff
9d004bd8:	00022402 	srl	a0,v0,0x10
9d004bdc:	00003012 	mflo	a2
9d004be0:	716a3802 	mul	a3,t3,t2
9d004be4:	000c6400 	sll	t4,t4,0x10
9d004be8:	01842025 	or	a0,t4,a0
9d004bec:	0087602b 	sltu	t4,a0,a3
9d004bf0:	0123001b 	divu	zero,t1,v1
9d004bf4:	006001f4 	teq	v1,zero,0x7
9d004bf8:	1180000b 	beqz	t4,9d004c28 <__udivdi3+0xa4>
9d004bfc:	00872823 	subu	a1,a0,a3
9d004c00:	00882021 	addu	a0,a0,t0
9d004c04:	0088282b 	sltu	a1,a0,t0
9d004c08:	14a00006 	bnez	a1,9d004c24 <__udivdi3+0xa0>
9d004c0c:	2566ffff 	addiu	a2,t3,-1
9d004c10:	0087282b 	sltu	a1,a0,a3
9d004c14:	10a00004 	beqz	a1,9d004c28 <__udivdi3+0xa4>
9d004c18:	00872823 	subu	a1,a0,a3
9d004c1c:	2566fffe 	addiu	a2,t3,-2
9d004c20:	00882021 	addu	a0,a0,t0
9d004c24:	00872823 	subu	a1,a0,a3
9d004c28:	3042ffff 	andi	v0,v0,0xffff
9d004c2c:	00a3001b 	divu	zero,a1,v1
9d004c30:	006001f4 	teq	v1,zero,0x7
9d004c34:	00004810 	mfhi	t1
9d004c38:	00003812 	mflo	a3
9d004c3c:	00002012 	mflo	a0
9d004c40:	70ea5002 	mul	t2,a3,t2
9d004c44:	00094c00 	sll	t1,t1,0x10
9d004c48:	01221025 	or	v0,t1,v0
9d004c4c:	004a482b 	sltu	t1,v0,t2
9d004c50:	00a3001b 	divu	zero,a1,v1
9d004c54:	006001f4 	teq	v1,zero,0x7
9d004c58:	51200009 	beqzl	t1,9d004c80 <__udivdi3+0xfc>
9d004c5c:	00061400 	sll	v0,a2,0x10
9d004c60:	00481021 	addu	v0,v0,t0
9d004c64:	0048402b 	sltu	t0,v0,t0
9d004c68:	15000004 	bnez	t0,9d004c7c <__udivdi3+0xf8>
9d004c6c:	24e4ffff 	addiu	a0,a3,-1
9d004c70:	004a502b 	sltu	t2,v0,t2
9d004c74:	24e7fffe 	addiu	a3,a3,-2
9d004c78:	00ea200b 	movn	a0,a3,t2
9d004c7c:	00061400 	sll	v0,a2,0x10
9d004c80:	00821025 	or	v0,a0,v0
9d004c84:	03e00008 	jr	ra
9d004c88:	00001821 	move	v1,zero
9d004c8c:	00a7102b 	sltu	v0,a1,a3
9d004c90:	14400044 	bnez	v0,9d004da4 <__udivdi3+0x220>
9d004c94:	70e84020 	clz	t0,a3
9d004c98:	55000045 	bnezl	t0,9d004db0 <__udivdi3+0x22c>
9d004c9c:	24020020 	li	v0,32
9d004ca0:	00e5282b 	sltu	a1,a3,a1
9d004ca4:	14a000c8 	bnez	a1,9d004fc8 <__udivdi3+0x444>
9d004ca8:	0086302b 	sltu	a2,a0,a2
9d004cac:	38c20001 	xori	v0,a2,0x1
9d004cb0:	03e00008 	jr	ra
9d004cb4:	00001821 	move	v1,zero
9d004cb8:	14c00006 	bnez	a2,9d004cd4 <__udivdi3+0x150>
9d004cbc:	71031820 	clz	v1,t0
9d004cc0:	24030001 	li	v1,1
9d004cc4:	0066001b 	divu	zero,v1,a2
9d004cc8:	00c001f4 	teq	a2,zero,0x7
9d004ccc:	00004012 	mflo	t0
9d004cd0:	71031820 	clz	v1,t0
9d004cd4:	5460007b 	bnezl	v1,9d004ec4 <__udivdi3+0x340>
9d004cd8:	00684004 	sllv	t0,t0,v1
9d004cdc:	00a82023 	subu	a0,a1,t0
9d004ce0:	00083c02 	srl	a3,t0,0x10
9d004ce4:	310bffff 	andi	t3,t0,0xffff
9d004ce8:	24030001 	li	v1,1
9d004cec:	00023402 	srl	a2,v0,0x10
9d004cf0:	0087001b 	divu	zero,a0,a3
9d004cf4:	00e001f4 	teq	a3,zero,0x7
9d004cf8:	00006810 	mfhi	t5
9d004cfc:	00006012 	mflo	t4
9d004d00:	00004812 	mflo	t1
9d004d04:	718b5002 	mul	t2,t4,t3
9d004d08:	000d6c00 	sll	t5,t5,0x10
9d004d0c:	01a63025 	or	a2,t5,a2
9d004d10:	00ca682b 	sltu	t5,a2,t2
9d004d14:	0087001b 	divu	zero,a0,a3
9d004d18:	00e001f4 	teq	a3,zero,0x7
9d004d1c:	11a00009 	beqz	t5,9d004d44 <__udivdi3+0x1c0>
9d004d20:	00ca2823 	subu	a1,a2,t2
9d004d24:	00c83021 	addu	a2,a2,t0
9d004d28:	00c8202b 	sltu	a0,a2,t0
9d004d2c:	14800004 	bnez	a0,9d004d40 <__udivdi3+0x1bc>
9d004d30:	2589ffff 	addiu	t1,t4,-1
9d004d34:	00ca202b 	sltu	a0,a2,t2
9d004d38:	548000a6 	bnezl	a0,9d004fd4 <__udivdi3+0x450>
9d004d3c:	2589fffe 	addiu	t1,t4,-2
9d004d40:	00ca2823 	subu	a1,a2,t2
9d004d44:	3042ffff 	andi	v0,v0,0xffff
9d004d48:	00a7001b 	divu	zero,a1,a3
9d004d4c:	00e001f4 	teq	a3,zero,0x7
9d004d50:	00005010 	mfhi	t2
9d004d54:	00003012 	mflo	a2
9d004d58:	00002012 	mflo	a0
9d004d5c:	70cb5802 	mul	t3,a2,t3
9d004d60:	000a5400 	sll	t2,t2,0x10
9d004d64:	01421025 	or	v0,t2,v0
9d004d68:	004b502b 	sltu	t2,v0,t3
9d004d6c:	00a7001b 	divu	zero,a1,a3
9d004d70:	00e001f4 	teq	a3,zero,0x7
9d004d74:	51400009 	beqzl	t2,9d004d9c <__udivdi3+0x218>
9d004d78:	00091400 	sll	v0,t1,0x10
9d004d7c:	00481021 	addu	v0,v0,t0
9d004d80:	0048402b 	sltu	t0,v0,t0
9d004d84:	15000004 	bnez	t0,9d004d98 <__udivdi3+0x214>
9d004d88:	24c4ffff 	addiu	a0,a2,-1
9d004d8c:	004b582b 	sltu	t3,v0,t3
9d004d90:	24c6fffe 	addiu	a2,a2,-2
9d004d94:	00cb200b 	movn	a0,a2,t3
9d004d98:	00091400 	sll	v0,t1,0x10
9d004d9c:	03e00008 	jr	ra
9d004da0:	00821025 	or	v0,a0,v0
9d004da4:	00001821 	move	v1,zero
9d004da8:	03e00008 	jr	ra
9d004dac:	00001021 	move	v0,zero
9d004db0:	00481023 	subu	v0,v0,t0
9d004db4:	01073804 	sllv	a3,a3,t0
9d004db8:	00461806 	srlv	v1,a2,v0
9d004dbc:	00673825 	or	a3,v1,a3
9d004dc0:	00455006 	srlv	t2,a1,v0
9d004dc4:	00071c02 	srl	v1,a3,0x10
9d004dc8:	0143001b 	divu	zero,t2,v1
9d004dcc:	006001f4 	teq	v1,zero,0x7
9d004dd0:	00004810 	mfhi	t1
9d004dd4:	00006812 	mflo	t5
9d004dd8:	30ebffff 	andi	t3,a3,0xffff
9d004ddc:	01052804 	sllv	a1,a1,t0
9d004de0:	00441006 	srlv	v0,a0,v0
9d004de4:	00452825 	or	a1,v0,a1
9d004de8:	00057402 	srl	t6,a1,0x10
9d004dec:	00001012 	mflo	v0
9d004df0:	71ab6002 	mul	t4,t5,t3
9d004df4:	00094c00 	sll	t1,t1,0x10
9d004df8:	012e4825 	or	t1,t1,t6
9d004dfc:	012c702b 	sltu	t6,t1,t4
9d004e00:	0143001b 	divu	zero,t2,v1
9d004e04:	006001f4 	teq	v1,zero,0x7
9d004e08:	11c0000a 	beqz	t6,9d004e34 <__udivdi3+0x2b0>
9d004e0c:	01063004 	sllv	a2,a2,t0
9d004e10:	01274821 	addu	t1,t1,a3
9d004e14:	0127502b 	sltu	t2,t1,a3
9d004e18:	15400006 	bnez	t2,9d004e34 <__udivdi3+0x2b0>
9d004e1c:	25a2ffff 	addiu	v0,t5,-1
9d004e20:	012c502b 	sltu	t2,t1,t4
9d004e24:	51400004 	beqzl	t2,9d004e38 <__udivdi3+0x2b4>
9d004e28:	012c4823 	subu	t1,t1,t4
9d004e2c:	25a2fffe 	addiu	v0,t5,-2
9d004e30:	01274821 	addu	t1,t1,a3
9d004e34:	012c4823 	subu	t1,t1,t4
9d004e38:	30a5ffff 	andi	a1,a1,0xffff
9d004e3c:	0123001b 	divu	zero,t1,v1
9d004e40:	006001f4 	teq	v1,zero,0x7
9d004e44:	00006810 	mfhi	t5
9d004e48:	00006012 	mflo	t4
9d004e4c:	00005012 	mflo	t2
9d004e50:	718b5802 	mul	t3,t4,t3
9d004e54:	000d6c00 	sll	t5,t5,0x10
9d004e58:	01a52825 	or	a1,t5,a1
9d004e5c:	00ab682b 	sltu	t5,a1,t3
9d004e60:	0123001b 	divu	zero,t1,v1
9d004e64:	006001f4 	teq	v1,zero,0x7
9d004e68:	51a0000b 	beqzl	t5,9d004e98 <__udivdi3+0x314>
9d004e6c:	00021400 	sll	v0,v0,0x10
9d004e70:	00a72821 	addu	a1,a1,a3
9d004e74:	00a7182b 	sltu	v1,a1,a3
9d004e78:	14600006 	bnez	v1,9d004e94 <__udivdi3+0x310>
9d004e7c:	258affff 	addiu	t2,t4,-1
9d004e80:	00ab182b 	sltu	v1,a1,t3
9d004e84:	50600004 	beqzl	v1,9d004e98 <__udivdi3+0x314>
9d004e88:	00021400 	sll	v0,v0,0x10
9d004e8c:	258afffe 	addiu	t2,t4,-2
9d004e90:	00a72821 	addu	a1,a1,a3
9d004e94:	00021400 	sll	v0,v0,0x10
9d004e98:	01421025 	or	v0,t2,v0
9d004e9c:	00ab2823 	subu	a1,a1,t3
9d004ea0:	00460019 	multu	v0,a2
9d004ea4:	00003810 	mfhi	a3
9d004ea8:	00a7182b 	sltu	v1,a1,a3
9d004eac:	14600044 	bnez	v1,9d004fc0 <__udivdi3+0x43c>
9d004eb0:	00003012 	mflo	a2
9d004eb4:	10a7003f 	beq	a1,a3,9d004fb4 <__udivdi3+0x430>
9d004eb8:	01042004 	sllv	a0,a0,t0
9d004ebc:	03e00008 	jr	ra
9d004ec0:	00001821 	move	v1,zero
9d004ec4:	24020020 	li	v0,32
9d004ec8:	00431023 	subu	v0,v0,v1
9d004ecc:	00454806 	srlv	t1,a1,v0
9d004ed0:	00083c02 	srl	a3,t0,0x10
9d004ed4:	0127001b 	divu	zero,t1,a3
9d004ed8:	00e001f4 	teq	a3,zero,0x7
9d004edc:	00003010 	mfhi	a2
9d004ee0:	00006012 	mflo	t4
9d004ee4:	310bffff 	andi	t3,t0,0xffff
9d004ee8:	00652804 	sllv	a1,a1,v1
9d004eec:	00441006 	srlv	v0,a0,v0
9d004ef0:	00452825 	or	a1,v0,a1
9d004ef4:	00056c02 	srl	t5,a1,0x10
9d004ef8:	00641004 	sllv	v0,a0,v1
9d004efc:	00001812 	mflo	v1
9d004f00:	718b5002 	mul	t2,t4,t3
9d004f04:	00063400 	sll	a2,a2,0x10
9d004f08:	01a63025 	or	a2,t5,a2
9d004f0c:	00ca202b 	sltu	a0,a2,t2
9d004f10:	0127001b 	divu	zero,t1,a3
9d004f14:	00e001f4 	teq	a3,zero,0x7
9d004f18:	5080000b 	beqzl	a0,9d004f48 <__udivdi3+0x3c4>
9d004f1c:	00ca3023 	subu	a2,a2,t2
9d004f20:	00c83021 	addu	a2,a2,t0
9d004f24:	00c8202b 	sltu	a0,a2,t0
9d004f28:	14800006 	bnez	a0,9d004f44 <__udivdi3+0x3c0>
9d004f2c:	2583ffff 	addiu	v1,t4,-1
9d004f30:	00ca202b 	sltu	a0,a2,t2
9d004f34:	50800004 	beqzl	a0,9d004f48 <__udivdi3+0x3c4>
9d004f38:	00ca3023 	subu	a2,a2,t2
9d004f3c:	2583fffe 	addiu	v1,t4,-2
9d004f40:	00c83021 	addu	a2,a2,t0
9d004f44:	00ca3023 	subu	a2,a2,t2
9d004f48:	30acffff 	andi	t4,a1,0xffff
9d004f4c:	00c7001b 	divu	zero,a2,a3
9d004f50:	00e001f4 	teq	a3,zero,0x7
9d004f54:	00002010 	mfhi	a0
9d004f58:	00005012 	mflo	t2
9d004f5c:	00004812 	mflo	t1
9d004f60:	714b2802 	mul	a1,t2,t3
9d004f64:	00042400 	sll	a0,a0,0x10
9d004f68:	008c2025 	or	a0,a0,t4
9d004f6c:	0085602b 	sltu	t4,a0,a1
9d004f70:	00c7001b 	divu	zero,a2,a3
9d004f74:	00e001f4 	teq	a3,zero,0x7
9d004f78:	5180000b 	beqzl	t4,9d004fa8 <__udivdi3+0x424>
9d004f7c:	00031c00 	sll	v1,v1,0x10
9d004f80:	00882021 	addu	a0,a0,t0
9d004f84:	0088302b 	sltu	a2,a0,t0
9d004f88:	14c00006 	bnez	a2,9d004fa4 <__udivdi3+0x420>
9d004f8c:	2549ffff 	addiu	t1,t2,-1
9d004f90:	0085302b 	sltu	a2,a0,a1
9d004f94:	50c00004 	beqzl	a2,9d004fa8 <__udivdi3+0x424>
9d004f98:	00031c00 	sll	v1,v1,0x10
9d004f9c:	2549fffe 	addiu	t1,t2,-2
9d004fa0:	00882021 	addu	a0,a0,t0
9d004fa4:	00031c00 	sll	v1,v1,0x10
9d004fa8:	00852023 	subu	a0,a0,a1
9d004fac:	0b40133b 	j	9d004cec <__udivdi3+0x168>
9d004fb0:	01231825 	or	v1,t1,v1
9d004fb4:	0086302b 	sltu	a2,a0,a2
9d004fb8:	10c0ffc0 	beqz	a2,9d004ebc <__udivdi3+0x338>
9d004fbc:	00000000 	nop
9d004fc0:	0b4013af 	j	9d004ebc <__udivdi3+0x338>
9d004fc4:	2442ffff 	addiu	v0,v0,-1
9d004fc8:	00001821 	move	v1,zero
9d004fcc:	03e00008 	jr	ra
9d004fd0:	24020001 	li	v0,1
9d004fd4:	0b401350 	j	9d004d40 <__udivdi3+0x1bc>
9d004fd8:	00c83021 	addu	a2,a2,t0

Disassembly of section .text.libm:

9d004fdc <__mchp_powf>:
9d004fdc:	27bdffc8 	addiu	sp,sp,-56
9d004fe0:	afbf0000 	sw	ra,0(sp)
9d004fe4:	000455c2 	srl	t2,a0,0x17
9d004fe8:	314a00ff 	andi	t2,t2,0xff
9d004fec:	00056dc2 	srl	t5,a1,0x17
9d004ff0:	31ad00ff 	andi	t5,t5,0xff
9d004ff4:	3c088000 	lui	t0,0x8000
9d004ff8:	00044a00 	sll	t1,a0,0x8
9d004ffc:	01284825 	or	t1,t1,t0
9d005000:	00056200 	sll	t4,a1,0x8
9d005004:	01886025 	or	t4,t4,t0
9d005008:	00a87024 	and	t6,a1,t0
9d00500c:	00882024 	and	a0,a0,t0
9d005010:	254fffff 	addiu	t7,t2,-1
9d005014:	2de100fe 	sltiu	at,t7,254
9d005018:	102000b2 	beqz	at,9d0052e4 <AspecA>
9d00501c:	00000000 	nop

9d005020 <Alab1>:
9d005020:	25afffff 	addiu	t7,t5,-1
9d005024:	2de100fe 	sltiu	at,t7,254
9d005028:	102000cc 	beqz	at,9d00535c <AspecB>
9d00502c:	00000000 	nop
9d005030:	10800010 	beqz	a0,9d005074 <i1>
9d005034:	25a7ff82 	addiu	a3,t5,-126
9d005038:	18e000d5 	blez	a3,9d005390 <Anan>
9d00503c:	00000000 	nop
9d005040:	2ce10020 	sltiu	at,a3,32
9d005044:	14200003 	bnez	at,9d005054 <i2>
9d005048:	00000000 	nop
9d00504c:	10000009 	b	9d005074 <i1>
9d005050:	24040000 	li	a0,0

9d005054 <i2>:
9d005054:	00ec7804 	sllv	t7,t4,a3
9d005058:	15e000cd 	bnez	t7,9d005390 <Anan>
9d00505c:	00000000 	nop
9d005060:	24e2ffff 	addiu	v0,a3,-1
9d005064:	004c7804 	sllv	t7,t4,v0
9d005068:	15e00002 	bnez	t7,9d005074 <i1>
9d00506c:	00000000 	nop
9d005070:	24040000 	li	a0,0

9d005074 <i1>:
9d005074:	2ce1000c 	sltiu	at,a3,12
9d005078:	10200004 	beqz	at,9d00508c <i4>
9d00507c:	00000000 	nop
9d005080:	00ec7804 	sllv	t7,t4,a3
9d005084:	11e00054 	beqz	t7,9d0051d8 <Apow20>
9d005088:	00000000 	nop

9d00508c <i4>:
9d00508c:	afa40004 	sw	a0,4(sp)
9d005090:	afa50008 	sw	a1,8(sp)
9d005094:	afa70010 	sw	a3,16(sp)
9d005098:	afa80014 	sw	t0,20(sp)
9d00509c:	afac0024 	sw	t4,36(sp)
9d0050a0:	afad0028 	sw	t5,40(sp)
9d0050a4:	afae002c 	sw	t6,44(sp)
9d0050a8:	00092025 	or	a0,zero,t1
9d0050ac:	000a2825 	or	a1,zero,t2
9d0050b0:	0f4015a6 	jal	9d005698 <.LFE4>
9d0050b4:	000b3025 	or	a2,zero,t3
9d0050b8:	00185825 	or	t3,zero,t8
9d0050bc:	00035025 	or	t2,zero,v1
9d0050c0:	00024825 	or	t1,zero,v0
9d0050c4:	8fae002c 	lw	t6,44(sp)
9d0050c8:	8fad0028 	lw	t5,40(sp)
9d0050cc:	8fac0024 	lw	t4,36(sp)
9d0050d0:	8fa80014 	lw	t0,20(sp)
9d0050d4:	8fa70010 	lw	a3,16(sp)
9d0050d8:	8fa50008 	lw	a1,8(sp)
9d0050dc:	8fa40004 	lw	a0,4(sp)
9d0050e0:	254fff82 	addiu	t7,t2,-126
9d0050e4:	01af6821 	addu	t5,t5,t7
9d0050e8:	01cb7026 	xor	t6,t6,t3
9d0050ec:	012c0019 	multu	t1,t4
9d0050f0:	00003012 	mflo	a2
9d0050f4:	00006010 	mfhi	t4
9d0050f8:	19800006 	blez	t4,9d005114 <i5>
9d0050fc:	00000000 	nop
9d005100:	00c0782a 	slt	t7,a2,zero
9d005104:	00c63021 	addu	a2,a2,a2
9d005108:	018c6021 	addu	t4,t4,t4
9d00510c:	018f6021 	addu	t4,t4,t7
9d005110:	25adffff 	addiu	t5,t5,-1

9d005114 <i5>:
9d005114:	00c0782a 	slt	t7,a2,zero
9d005118:	00c63021 	addu	a2,a2,a2
9d00511c:	018f6021 	addu	t4,t4,t7
9d005120:	afa40004 	sw	a0,4(sp)
9d005124:	afa50008 	sw	a1,8(sp)
9d005128:	afa6000c 	sw	a2,12(sp)
9d00512c:	afa70010 	sw	a3,16(sp)
9d005130:	afa80014 	sw	t0,20(sp)
9d005134:	afac0024 	sw	t4,36(sp)
9d005138:	afad0028 	sw	t5,40(sp)
9d00513c:	afae002c 	sw	t6,44(sp)
9d005140:	000c2025 	or	a0,zero,t4
9d005144:	000d2825 	or	a1,zero,t5
9d005148:	0f40180d 	jal	9d006034 <fpexexp>
9d00514c:	000e3025 	or	a2,zero,t6
9d005150:	00185825 	or	t3,zero,t8
9d005154:	00035025 	or	t2,zero,v1
9d005158:	00024825 	or	t1,zero,v0
9d00515c:	8fae002c 	lw	t6,44(sp)
9d005160:	8fad0028 	lw	t5,40(sp)
9d005164:	8fac0024 	lw	t4,36(sp)
9d005168:	8fa80014 	lw	t0,20(sp)
9d00516c:	8fa70010 	lw	a3,16(sp)
9d005170:	8fa6000c 	lw	a2,12(sp)
9d005174:	8fa50008 	lw	a1,8(sp)
9d005178:	8fa40004 	lw	a0,4(sp)

9d00517c <Aret2>:
9d00517c:	254fffff 	addiu	t7,t2,-1
9d005180:	2de100fe 	sltiu	at,t7,254
9d005184:	1420000c 	bnez	at,9d0051b8 <i6>
9d005188:	00000000 	nop
9d00518c:	1d40007d 	bgtz	t2,9d005384 <Ainf>
9d005190:	00000000 	nop
9d005194:	24060009 	li	a2,9
9d005198:	00ca3023 	subu	a2,a2,t2
9d00519c:	2cc10020 	sltiu	at,a2,32
9d0051a0:	14200002 	bnez	at,9d0051ac <L1>
9d0051a4:	00000000 	nop
9d0051a8:	34090000 	li	t1,0x0

9d0051ac <L1>:
9d0051ac:	00c94806 	srlv	t1,t1,a2
9d0051b0:	10000006 	b	9d0051cc <A999>
9d0051b4:	00891025 	or	v0,a0,t1

9d0051b8 <i6>:
9d0051b8:	00094840 	sll	t1,t1,0x1
9d0051bc:	00094a42 	srl	t1,t1,0x9
9d0051c0:	000a7dc0 	sll	t7,t2,0x17
9d0051c4:	012f4825 	or	t1,t1,t7
9d0051c8:	00891025 	or	v0,a0,t1

9d0051cc <A999>:
9d0051cc:	8fbf0000 	lw	ra,0(sp)
9d0051d0:	03e00008 	jr	ra
9d0051d4:	27bd0038 	addiu	sp,sp,56

9d0051d8 <Apow20>:
9d0051d8:	240f0020 	li	t7,32
9d0051dc:	01e77823 	subu	t7,t7,a3
9d0051e0:	01ec4006 	srlv	t0,t4,t7
9d0051e4:	00096025 	or	t4,zero,t1
9d0051e8:	000a6825 	or	t5,zero,t2
9d0051ec:	310f0001 	andi	t7,t0,0x1
9d0051f0:	15e00003 	bnez	t7,9d005200 <i7>
9d0051f4:	00000000 	nop
9d0051f8:	3c098000 	lui	t1,0x8000
9d0051fc:	240a007f 	li	t2,127

9d005200 <i7>:
9d005200:	00084042 	srl	t0,t0,0x1

9d005204 <b8>:
9d005204:	11000016 	beqz	t0,9d005260 <i8>
9d005208:	00000000 	nop
9d00520c:	000d6840 	sll	t5,t5,0x1
9d005210:	25adff82 	addiu	t5,t5,-126
9d005214:	018c0019 	multu	t4,t4
9d005218:	00006010 	mfhi	t4
9d00521c:	19800003 	blez	t4,9d00522c <i9>
9d005220:	00000000 	nop
9d005224:	000c6040 	sll	t4,t4,0x1
9d005228:	25adffff 	addiu	t5,t5,-1

9d00522c <i9>:
9d00522c:	310f0001 	andi	t7,t0,0x1
9d005230:	11e00009 	beqz	t7,9d005258 <i10>
9d005234:	00000000 	nop
9d005238:	25afff82 	addiu	t7,t5,-126
9d00523c:	014f5021 	addu	t2,t2,t7
9d005240:	012c0019 	multu	t1,t4
9d005244:	00004810 	mfhi	t1
9d005248:	19200003 	blez	t1,9d005258 <i10>
9d00524c:	00000000 	nop
9d005250:	00094840 	sll	t1,t1,0x1
9d005254:	254affff 	addiu	t2,t2,-1

9d005258 <i10>:
9d005258:	1000ffea 	b	9d005204 <b8>
9d00525c:	00084042 	srl	t0,t0,0x1

9d005260 <i8>:
9d005260:	11c0ffc6 	beqz	t6,9d00517c <Aret2>
9d005264:	00000000 	nop
9d005268:	3c0c4000 	lui	t4,0x4000
9d00526c:	240f00fe 	li	t7,254
9d005270:	01ea5023 	subu	t2,t7,t2
9d005274:	00094025 	or	t0,zero,t1
9d005278:	00086c02 	srl	t5,t0,0x10
9d00527c:	01a001f4 	teq	t5,zero,0x7
9d005280:	018d001b 	divu	zero,t4,t5
9d005284:	00003012 	mflo	a2
9d005288:	00006010 	mfhi	t4
9d00528c:	3107ffff 	andi	a3,t0,0xffff
9d005290:	00e60019 	multu	a3,a2
9d005294:	00007012 	mflo	t6
9d005298:	000c6400 	sll	t4,t4,0x10
9d00529c:	018e782b 	sltu	t7,t4,t6
9d0052a0:	11e00006 	beqz	t7,9d0052bc <i13>
9d0052a4:	018e6023 	subu	t4,t4,t6

9d0052a8 <b14>:
9d0052a8:	24c6ffff 	addiu	a2,a2,-1
9d0052ac:	01886021 	addu	t4,t4,t0
9d0052b0:	0188082b 	sltu	at,t4,t0
9d0052b4:	1020fffc 	beqz	at,9d0052a8 <b14>
9d0052b8:	00000000 	nop

9d0052bc <i13>:
9d0052bc:	01a001f4 	teq	t5,zero,0x7
9d0052c0:	018d001b 	divu	zero,t4,t5
9d0052c4:	00004812 	mflo	t1
9d0052c8:	00067c00 	sll	t7,a2,0x10
9d0052cc:	012f4821 	addu	t1,t1,t7
9d0052d0:	1920ffaa 	blez	t1,9d00517c <Aret2>
9d0052d4:	00000000 	nop
9d0052d8:	00094840 	sll	t1,t1,0x1
9d0052dc:	1000ffa7 	b	9d00517c <Aret2>
9d0052e0:	254affff 	addiu	t2,t2,-1

9d0052e4 <AspecA>:
9d0052e4:	15400008 	bnez	t2,9d005308 <i16>
9d0052e8:	00000000 	nop
9d0052ec:	01294821 	addu	t1,t1,t1
9d0052f0:	11200005 	beqz	t1,9d005308 <i16>
9d0052f4:	00000000 	nop
9d0052f8:	71263020 	clz	a2,t1
9d0052fc:	01465023 	subu	t2,t2,a2
9d005300:	1000ff47 	b	9d005020 <Alab1>
9d005304:	00c94804 	sllv	t1,t1,a2

9d005308 <i16>:
9d005308:	00a57821 	addu	t7,a1,a1
9d00530c:	11e00020 	beqz	t7,9d005390 <Anan>
9d005310:	00000000 	nop
9d005314:	15400008 	bnez	t2,9d005338 <i18>
9d005318:	00000000 	nop
9d00531c:	240100ff 	li	at,255
9d005320:	11a1001b 	beq	t5,at,9d005390 <Anan>
9d005324:	00000000 	nop
9d005328:	04a00016 	bltz	a1,9d005384 <Ainf>
9d00532c:	00000000 	nop
9d005330:	10000019 	b	9d005398 <Azer>
9d005334:	00000000 	nop

9d005338 <i18>:
9d005338:	01297821 	addu	t7,t1,t1
9d00533c:	15e00014 	bnez	t7,9d005390 <Anan>
9d005340:	00000000 	nop
9d005344:	2da1007f 	sltiu	at,t5,127
9d005348:	1020ff35 	beqz	at,9d005020 <Alab1>
9d00534c:	00000000 	nop
9d005350:	240d007f 	li	t5,127
9d005354:	1000ff32 	b	9d005020 <Alab1>
9d005358:	240cffff 	li	t4,-1

9d00535c <AspecB>:
9d00535c:	15a00005 	bnez	t5,9d005374 <i20>
9d005360:	018c6021 	addu	t4,t4,t4
9d005364:	1180000e 	beqz	t4,9d0053a0 <Aone>
9d005368:	00000000 	nop
9d00536c:	1080000c 	beqz	a0,9d0053a0 <Aone>
9d005370:	00000000 	nop

9d005374 <i20>:
9d005374:	15800006 	bnez	t4,9d005390 <Anan>
9d005378:	00000000 	nop
9d00537c:	1000000a 	b	9d0053a8 <Aovr>
9d005380:	00000000 	nop

9d005384 <Ainf>:
9d005384:	3c017f80 	lui	at,0x7f80
9d005388:	1000ff90 	b	9d0051cc <A999>
9d00538c:	00811025 	or	v0,a0,at

9d005390 <Anan>:
9d005390:	1000ff8e 	b	9d0051cc <A999>
9d005394:	3c02ffc0 	lui	v0,0xffc0

9d005398 <Azer>:
9d005398:	1000ff8c 	b	9d0051cc <A999>
9d00539c:	00041025 	or	v0,zero,a0

9d0053a0 <Aone>:
9d0053a0:	1000ff8a 	b	9d0051cc <A999>
9d0053a4:	3c023f80 	lui	v0,0x3f80

9d0053a8 <Aovr>:
9d0053a8:	1480fff9 	bnez	a0,9d005390 <Anan>
9d0053ac:	00000000 	nop
9d0053b0:	04a10006 	bgez	a1,9d0053cc <i21>
9d0053b4:	00000000 	nop
9d0053b8:	2941007f 	slti	at,t2,127
9d0053bc:	1020fff6 	beqz	at,9d005398 <Azer>
9d0053c0:	00000000 	nop
9d0053c4:	1000ffef 	b	9d005384 <Ainf>
9d0053c8:	00000000 	nop

9d0053cc <i21>:
9d0053cc:	2941007f 	slti	at,t2,127
9d0053d0:	1020ffec 	beqz	at,9d005384 <Ainf>
9d0053d4:	00000000 	nop
9d0053d8:	1000ffef 	b	9d005398 <Azer>
9d0053dc:	00000000 	nop
9d0053e0:	00000000 	nop

Disassembly of section .text:

9d0053e4 <NU32_Startup>:
9d0053e4:	27bdfff8 	addiu	sp,sp,-8
9d0053e8:	afbf0004 	sw	ra,4(sp)
9d0053ec:	afbe0000 	sw	s8,0(sp)
9d0053f0:	03a0f021 	move	s8,sp
9d0053f4:	41626000 	di	v0
9d0053f8:	000000c0 	ehb
9d0053fc:	00000000 	nop
9d005400:	3c02a421 	lui	v0,0xa421
9d005404:	34420583 	ori	v0,v0,0x583
9d005408:	40828000 	mtc0	v0,c0_config
9d00540c:	000000c0 	ehb
9d005410:	3c03bf88 	lui	v1,0xbf88
9d005414:	8c624000 	lw	v0,16384(v1)
9d005418:	24040002 	li	a0,2
9d00541c:	7c821004 	ins	v0,a0,0x0,0x3
9d005420:	ac624000 	sw	v0,16384(v1)
9d005424:	3c03bf88 	lui	v1,0xbf88
9d005428:	8c624000 	lw	v0,16384(v1)
9d00542c:	24040003 	li	a0,3
9d005430:	7c822904 	ins	v0,a0,0x4,0x2
9d005434:	ac624000 	sw	v0,16384(v1)
9d005438:	3c03bf88 	lui	v1,0xbf88
9d00543c:	8c622000 	lw	v0,8192(v1)
9d005440:	7c023184 	ins	v0,zero,0x6,0x1
9d005444:	ac622000 	sw	v0,8192(v1)
9d005448:	3c03bf88 	lui	v1,0xbf88
9d00544c:	8c621000 	lw	v0,4096(v1)
9d005450:	24040001 	li	a0,1
9d005454:	7c826304 	ins	v0,a0,0xc,0x1
9d005458:	ac621000 	sw	v0,4096(v1)
9d00545c:	3c03bf81 	lui	v1,0xbf81
9d005460:	9062f200 	lbu	v0,-3584(v1)
9d005464:	7c0218c4 	ins	v0,zero,0x3,0x1
9d005468:	a062f200 	sb	v0,-3584(v1)
9d00546c:	3c02bf88 	lui	v0,0xbf88
9d005470:	24030003 	li	v1,3
9d005474:	ac436144 	sw	v1,24900(v0)
9d005478:	3c03bf88 	lui	v1,0xbf88
9d00547c:	90626160 	lbu	v0,24928(v1)
9d005480:	24040001 	li	a0,1
9d005484:	7c820004 	ins	v0,a0,0x0,0x1
9d005488:	a0626160 	sb	v0,24928(v1)
9d00548c:	3c03bf88 	lui	v1,0xbf88
9d005490:	90626160 	lbu	v0,24928(v1)
9d005494:	7c020844 	ins	v0,zero,0x1,0x1
9d005498:	a0626160 	sb	v0,24928(v1)
9d00549c:	3c03bf80 	lui	v1,0xbf80
9d0054a0:	94626400 	lhu	v0,25600(v1)
9d0054a4:	7c0218c4 	ins	v0,zero,0x3,0x1
9d0054a8:	a4626400 	sh	v0,25600(v1)
9d0054ac:	3c02bf80 	lui	v0,0xbf80
9d0054b0:	24030014 	li	v1,20
9d0054b4:	ac436440 	sw	v1,25664(v0)
9d0054b8:	3c03bf80 	lui	v1,0xbf80
9d0054bc:	94626400 	lhu	v0,25600(v1)
9d0054c0:	7c021044 	ins	v0,zero,0x1,0x2
9d0054c4:	a4626400 	sh	v0,25600(v1)
9d0054c8:	3c03bf80 	lui	v1,0xbf80
9d0054cc:	94626400 	lhu	v0,25600(v1)
9d0054d0:	7c020004 	ins	v0,zero,0x0,0x1
9d0054d4:	a4626400 	sh	v0,25600(v1)
9d0054d8:	3c03bf80 	lui	v1,0xbf80
9d0054dc:	8c626410 	lw	v0,25616(v1)
9d0054e0:	24040001 	li	a0,1
9d0054e4:	7c825284 	ins	v0,a0,0xa,0x1
9d0054e8:	ac626410 	sw	v0,25616(v1)
9d0054ec:	3c03bf80 	lui	v1,0xbf80
9d0054f0:	8c626410 	lw	v0,25616(v1)
9d0054f4:	24040001 	li	a0,1
9d0054f8:	7c826304 	ins	v0,a0,0xc,0x1
9d0054fc:	ac626410 	sw	v0,25616(v1)
9d005500:	3c03bf80 	lui	v1,0xbf80
9d005504:	94626400 	lhu	v0,25600(v1)
9d005508:	24040002 	li	a0,2
9d00550c:	7c824a04 	ins	v0,a0,0x8,0x2
9d005510:	a4626400 	sh	v0,25600(v1)
9d005514:	3c03bf80 	lui	v1,0xbf80
9d005518:	94626400 	lhu	v0,25600(v1)
9d00551c:	24040001 	li	a0,1
9d005520:	7c827bc4 	ins	v0,a0,0xf,0x1
9d005524:	a4626400 	sh	v0,25600(v1)
9d005528:	41626020 	ei	v0
9d00552c:	03c0e821 	move	sp,s8
9d005530:	8fbf0004 	lw	ra,4(sp)
9d005534:	8fbe0000 	lw	s8,0(sp)
9d005538:	27bd0008 	addiu	sp,sp,8
9d00553c:	03e00008 	jr	ra
9d005540:	00000000 	nop

9d005544 <NU32_ReadUART3>:
9d005544:	27bdffe8 	addiu	sp,sp,-24
9d005548:	afbe0014 	sw	s8,20(sp)
9d00554c:	03a0f021 	move	s8,sp
9d005550:	afc40018 	sw	a0,24(s8)
9d005554:	afc5001c 	sw	a1,28(s8)
9d005558:	a3c00008 	sb	zero,8(s8)
9d00555c:	afc00000 	sw	zero,0(s8)
9d005560:	afc00004 	sw	zero,4(s8)
9d005564:	0b40157d 	j	9d0055f4 <NU32_ReadUART3+0xb0>
9d005568:	00000000 	nop
9d00556c:	3c02bf80 	lui	v0,0xbf80
9d005570:	8c426410 	lw	v0,25616(v0)
9d005574:	30420001 	andi	v0,v0,0x1
9d005578:	1040001e 	beqz	v0,9d0055f4 <NU32_ReadUART3+0xb0>
9d00557c:	00000000 	nop
9d005580:	3c02bf80 	lui	v0,0xbf80
9d005584:	8c426430 	lw	v0,25648(v0)
9d005588:	a3c20008 	sb	v0,8(s8)
9d00558c:	83c30008 	lb	v1,8(s8)
9d005590:	2402000a 	li	v0,10
9d005594:	10620005 	beq	v1,v0,9d0055ac <NU32_ReadUART3+0x68>
9d005598:	00000000 	nop
9d00559c:	83c30008 	lb	v1,8(s8)
9d0055a0:	2402000d 	li	v0,13
9d0055a4:	14620005 	bne	v1,v0,9d0055bc <NU32_ReadUART3+0x78>
9d0055a8:	00000000 	nop
9d0055ac:	24020001 	li	v0,1
9d0055b0:	afc20000 	sw	v0,0(s8)
9d0055b4:	0b40157d 	j	9d0055f4 <NU32_ReadUART3+0xb0>
9d0055b8:	00000000 	nop
9d0055bc:	8fc20004 	lw	v0,4(s8)
9d0055c0:	8fc30018 	lw	v1,24(s8)
9d0055c4:	00621021 	addu	v0,v1,v0
9d0055c8:	93c30008 	lbu	v1,8(s8)
9d0055cc:	a0430000 	sb	v1,0(v0)
9d0055d0:	8fc20004 	lw	v0,4(s8)
9d0055d4:	24420001 	addiu	v0,v0,1
9d0055d8:	afc20004 	sw	v0,4(s8)
9d0055dc:	8fc30004 	lw	v1,4(s8)
9d0055e0:	8fc2001c 	lw	v0,28(s8)
9d0055e4:	0062102a 	slt	v0,v1,v0
9d0055e8:	14400002 	bnez	v0,9d0055f4 <NU32_ReadUART3+0xb0>
9d0055ec:	00000000 	nop
9d0055f0:	afc00004 	sw	zero,4(s8)
9d0055f4:	8fc20000 	lw	v0,0(s8)
9d0055f8:	1040ffdc 	beqz	v0,9d00556c <NU32_ReadUART3+0x28>
9d0055fc:	00000000 	nop
9d005600:	8fc20004 	lw	v0,4(s8)
9d005604:	8fc30018 	lw	v1,24(s8)
9d005608:	00621021 	addu	v0,v1,v0
9d00560c:	a0400000 	sb	zero,0(v0)
9d005610:	03c0e821 	move	sp,s8
9d005614:	8fbe0014 	lw	s8,20(sp)
9d005618:	27bd0018 	addiu	sp,sp,24
9d00561c:	03e00008 	jr	ra
9d005620:	00000000 	nop

9d005624 <NU32_WriteUART3>:
9d005624:	27bdfff8 	addiu	sp,sp,-8
9d005628:	afbe0004 	sw	s8,4(sp)
9d00562c:	03a0f021 	move	s8,sp
9d005630:	afc40008 	sw	a0,8(s8)
9d005634:	0b40159d 	j	9d005674 <NU32_WriteUART3+0x50>
9d005638:	00000000 	nop
9d00563c:	00000000 	nop
9d005640:	3c02bf80 	lui	v0,0xbf80
9d005644:	8c426410 	lw	v0,25616(v0)
9d005648:	30420200 	andi	v0,v0,0x200
9d00564c:	1440fffc 	bnez	v0,9d005640 <NU32_WriteUART3+0x1c>
9d005650:	00000000 	nop
9d005654:	8fc20008 	lw	v0,8(s8)
9d005658:	80420000 	lb	v0,0(v0)
9d00565c:	00401821 	move	v1,v0
9d005660:	3c02bf80 	lui	v0,0xbf80
9d005664:	ac436420 	sw	v1,25632(v0)
9d005668:	8fc20008 	lw	v0,8(s8)
9d00566c:	24420001 	addiu	v0,v0,1
9d005670:	afc20008 	sw	v0,8(s8)
9d005674:	8fc20008 	lw	v0,8(s8)
9d005678:	80420000 	lb	v0,0(v0)
9d00567c:	1440ffef 	bnez	v0,9d00563c <NU32_WriteUART3+0x18>
9d005680:	00000000 	nop
9d005684:	03c0e821 	move	sp,s8
9d005688:	8fbe0004 	lw	s8,4(sp)
9d00568c:	27bd0008 	addiu	sp,sp,8
9d005690:	03e00008 	jr	ra
9d005694:	00000000 	nop

Disassembly of section .text.libm:

9d005698 <fpexlog>:
9d005698:	00043ec2 30e7001e 3c01f000 00814024     .>.....0...<$@..
9d0056a8:	28a1007f 14200008 00000000 24060000     ...(.. ........$
9d0056b8:	24adff81 01045821 3c010fff 3421ffff     ...$!X.....<..!4
9d0056c8:	10000009 00812024                       ....$ ..

9d0056d0 <i1>:
9d0056d0:	3c068000 	lui	a2,0x8000
9d0056d4:	240d007e 	li	t5,126
9d0056d8:	01a56823 	subu	t5,t5,a1
9d0056dc:	24e7fff2 	addiu	a3,a3,-14
9d0056e0:	3c011000 	lui	at,0x1000
9d0056e4:	01014021 	addu	t0,t0,at
9d0056e8:	01045821 	addu	t3,t0,a0
9d0056ec:	01042023 	subu	a0,t0,a0

9d0056f0 <e1>:
9d0056f0:	000b5842 	srl	t3,t3,0x1
9d0056f4:	3c018000 	lui	at,0x8000
9d0056f8:	01615825 	or	t3,t3,at
9d0056fc:	2405007f 	li	a1,127
9d005700:	70884020 	clz	t0,a0
9d005704:	00a82823 	subu	a1,a1,t0
9d005708:	01042004 	sllv	a0,a0,t0
9d00570c:	008b082b 	sltu	at,a0,t3
9d005710:	14200003 	bnez	at,9d005720 <i2>
9d005714:	00000000 	nop
9d005718:	00042042 	srl	a0,a0,0x1
9d00571c:	24a50001 	addiu	a1,a1,1

9d005720 <i2>:
9d005720:	000b6402 	srl	t4,t3,0x10
9d005724:	018001f4 	teq	t4,zero,0x7
9d005728:	008c001b 	divu	zero,a0,t4
9d00572c:	00004012 	mflo	t0
9d005730:	00002010 	mfhi	a0
9d005734:	3169ffff 	andi	t1,t3,0xffff
9d005738:	01280019 	multu	t1,t0
9d00573c:	00005012 	mflo	t2
9d005740:	00042400 	sll	a0,a0,0x10
9d005744:	000b7c42 	srl	t7,t3,0x11
9d005748:	008f2025 	or	a0,a0,t7
9d00574c:	008a782b 	sltu	t7,a0,t2
9d005750:	11e00006 	beqz	t7,9d00576c <i3>
9d005754:	008a2023 	subu	a0,a0,t2

9d005758 <b4>:
9d005758:	2508ffff 	addiu	t0,t0,-1
9d00575c:	008b2021 	addu	a0,a0,t3
9d005760:	008b082b 	sltu	at,a0,t3
9d005764:	1020fffc 	beqz	at,9d005758 <b4>
9d005768:	00000000 	nop

9d00576c <i3>:
9d00576c:	018001f4 	teq	t4,zero,0x7
9d005770:	008c001b 	divu	zero,a0,t4
9d005774:	00002012 	mflo	a0
9d005778:	00006010 	mfhi	t4
9d00577c:	01240019 	multu	t1,a0
9d005780:	00005012 	mflo	t2
9d005784:	000c6400 	sll	t4,t4,0x10
9d005788:	018a782b 	sltu	t7,t4,t2
9d00578c:	11e00006 	beqz	t7,9d0057a8 <i5>
9d005790:	018a6023 	subu	t4,t4,t2

9d005794 <b6>:
9d005794:	2484ffff 	addiu	a0,a0,-1
9d005798:	018b6021 	addu	t4,t4,t3
9d00579c:	018b082b 	sltu	at,t4,t3
9d0057a0:	1020fffc 	beqz	at,9d005794 <b6>
9d0057a4:	00000000 	nop

9d0057a8 <i5>:
9d0057a8:	00087c00 	sll	t7,t0,0x10
9d0057ac:	008f2021 	addu	a0,a0,t7
9d0057b0:	00840019 	multu	a0,a0
9d0057b4:	00005810 	mfhi	t3
9d0057b8:	24080080 	li	t0,128
9d0057bc:	01054023 	subu	t0,t0,a1
9d0057c0:	00084040 	sll	t0,t0,0x1
9d0057c4:	2d010020 	sltiu	at,t0,32
9d0057c8:	14200002 	bnez	at,9d0057d4 <L1>
9d0057cc:	00000000 	nop
9d0057d0:	340b0000 	li	t3,0x0

9d0057d4 <L1>:
9d0057d4:	010b5806 	srlv	t3,t3,t0
9d0057d8:	3c0ea000 	lui	t6,0xa000
9d0057dc:	25ce01a4 	addiu	t6,t6,420
9d0057e0:	8dca0000 	lw	t2,0(t6)
9d0057e4:	25ce0004 	addiu	t6,t6,4

9d0057e8 <b7>:
9d0057e8:	016a0019 	multu	t3,t2
9d0057ec:	00005010 	mfhi	t2
9d0057f0:	8dc90000 	lw	t1,0(t6)
9d0057f4:	25ce0004 	addiu	t6,t6,4
9d0057f8:	01495021 	addu	t2,t2,t1
9d0057fc:	3c014000 	lui	at,0x4000
9d005800:	0121082b 	sltu	at,t1,at
9d005804:	1420fff8 	bnez	at,9d0057e8 <b7>
9d005808:	00000000 	nop
9d00580c:	008a0019 	multu	a0,t2
9d005810:	00004012 	mflo	t0
9d005814:	00002010 	mfhi	a0
9d005818:	18800006 	blez	a0,9d005834 <i8>
9d00581c:	00000000 	nop
9d005820:	0100782a 	slt	t7,t0,zero
9d005824:	01084021 	addu	t0,t0,t0
9d005828:	00842021 	addu	a0,a0,a0
9d00582c:	008f2021 	addu	a0,a0,t7
9d005830:	24a5ffff 	addiu	a1,a1,-1

9d005834 <i8>:
9d005834:	3c0fa000 	lui	t7,0xa000
9d005838:	25ef01b0 	addiu	t7,t7,432
9d00583c:	24e20001 	addiu	v0,a3,1
9d005840:	00021080 	sll	v0,v0,0x2
9d005844:	01e27821 	addu	t7,t7,v0
9d005848:	8de80000 	lw	t0,0(t7)
9d00584c:	11000015 	beqz	t0,9d0058a4 <i9>
9d005850:	00000000 	nop
9d005854:	01054823 	subu	t1,t0,a1
9d005858:	2d210020 	sltiu	at,t1,32
9d00585c:	14200002 	bnez	at,9d005868 <L2>
9d005860:	00000000 	nop
9d005864:	34040000 	li	a0,0x0

9d005868 <L2>:
9d005868:	01242006 	srlv	a0,a0,t1
9d00586c:	00082825 	or	a1,zero,t0
9d005870:	3c0fa000 	lui	t7,0xa000
9d005874:	25ef01b0 	addiu	t7,t7,432
9d005878:	00071080 	sll	v0,a3,0x2
9d00587c:	01e27821 	addu	t7,t7,v0
9d005880:	8de80000 	lw	t0,0(t7)
9d005884:	00882021 	addu	a0,a0,t0
9d005888:	0088782b 	sltu	t7,a0,t0
9d00588c:	11e00005 	beqz	t7,9d0058a4 <i9>
9d005890:	00000000 	nop
9d005894:	00042042 	srl	a0,a0,0x1
9d005898:	3c018000 	lui	at,0x8000
9d00589c:	00812025 	or	a0,a0,at
9d0058a0:	24a50001 	addiu	a1,a1,1

9d0058a4 <i9>:
9d0058a4:	11a00020 	beqz	t5,9d005928 <i11>
9d0058a8:	00000000 	nop
9d0058ac:	240c009e 	li	t4,158
9d0058b0:	71a84020 	clz	t0,t5
9d0058b4:	01886023 	subu	t4,t4,t0
9d0058b8:	010d6804 	sllv	t5,t5,t0
9d0058bc:	3c0bb172 	lui	t3,0xb172
9d0058c0:	356b17f8 	ori	t3,t3,0x17f8
9d0058c4:	016d0019 	multu	t3,t5
9d0058c8:	00004012 	mflo	t0
9d0058cc:	00005810 	mfhi	t3
9d0058d0:	19600006 	blez	t3,9d0058ec <i12>
9d0058d4:	00000000 	nop
9d0058d8:	0100782a 	slt	t7,t0,zero
9d0058dc:	01084021 	addu	t0,t0,t0
9d0058e0:	016b5821 	addu	t3,t3,t3
9d0058e4:	016f5821 	addu	t3,t3,t7
9d0058e8:	258cffff 	addiu	t4,t4,-1

9d0058ec <i12>:
9d0058ec:	01854023 	subu	t0,t4,a1
9d0058f0:	2d010020 	sltiu	at,t0,32
9d0058f4:	14200002 	bnez	at,9d005900 <L3>
9d0058f8:	00000000 	nop
9d0058fc:	34040000 	li	a0,0x0

9d005900 <L3>:
9d005900:	01042006 	srlv	a0,a0,t0
9d005904:	008b2021 	addu	a0,a0,t3
9d005908:	008b782b 	sltu	t7,a0,t3
9d00590c:	11e00005 	beqz	t7,9d005924 <i13>
9d005910:	00000000 	nop
9d005914:	00042042 	srl	a0,a0,0x1
9d005918:	3c018000 	lui	at,0x8000
9d00591c:	00812025 	or	a0,a0,at
9d005920:	258c0001 	addiu	t4,t4,1

9d005924 <i13>:
9d005924:	000c2825 	or	a1,zero,t4

9d005928 <i11>:
9d005928:	14800002 	bnez	a0,9d005934 <i14>
9d00592c:	00000000 	nop
9d005930:	24050000 	li	a1,0

9d005934 <i14>:
9d005934:	00041025 	or	v0,zero,a0
9d005938:	00051825 	or	v1,zero,a1
9d00593c:	0006c025 	or	t8,zero,a2

9d005940 <A999>:
9d005940:	03e00008 	jr	ra
9d005944:	00000000 	nop
9d005948:	00000000 	nop

Disassembly of section .text.fpsubadd:

9d00594c <__subsf3>:
9d00594c:	3c018000 00a12826                       ...<&(..

9d005954 <__addsf3>:
9d005954:	00044dc2 312900ff 00055dc2 316b00ff     .M....)1.]....k1
9d005964:	3c078000 00044200 01074025 00055200     ...<.B..%@...R..
9d005974:	01475025 252dffff 2da100fe 10200061     %PG...-%...-a. .
9d005984:	00000000                                ....

9d005988 <Blab1>:
9d005988:	256dffff 	addiu	t5,t3,-1
9d00598c:	2da100fe 	sltiu	at,t5,254
9d005990:	10200077 	beqz	at,9d005b70 <BspecB>
9d005994:	00000000 	nop

9d005998 <Blab2>:
9d005998:	012b6023 	subu	t4,t1,t3
9d00599c:	0580000d 	bltz	t4,9d0059d4 <i1>
9d0059a0:	00000000 	nop
9d0059a4:	29810020 	slti	at,t4,32
9d0059a8:	14200003 	bnez	at,9d0059b8 <i2>
9d0059ac:	00000000 	nop
9d0059b0:	10000015 	b	9d005a08 <e1>
9d0059b4:	240a0002 	li	t2,2

9d0059b8 <i2>:
9d0059b8:	000a3025 	or	a2,zero,t2
9d0059bc:	018a5006 	srlv	t2,t2,t4
9d0059c0:	018a6804 	sllv	t5,t2,t4
9d0059c4:	11a60010 	beq	t5,a2,9d005a08 <e1>
9d0059c8:	00000000 	nop
9d0059cc:	1000000e 	b	9d005a08 <e1>
9d0059d0:	354a0002 	ori	t2,t2,0x2

9d0059d4 <i1>:
9d0059d4:	000b4825 	or	t1,zero,t3
9d0059d8:	000c6023 	negu	t4,t4
9d0059dc:	29810020 	slti	at,t4,32
9d0059e0:	14200003 	bnez	at,9d0059f0 <i4>
9d0059e4:	00000000 	nop
9d0059e8:	10000007 	b	9d005a08 <e1>
9d0059ec:	24080002 	li	t0,2

9d0059f0 <i4>:
9d0059f0:	00083025 	or	a2,zero,t0
9d0059f4:	01884006 	srlv	t0,t0,t4
9d0059f8:	01886804 	sllv	t5,t0,t4
9d0059fc:	11a60002 	beq	t5,a2,9d005a08 <e1>
9d005a00:	00000000 	nop
9d005a04:	35080002 	ori	t0,t0,0x2

9d005a08 <e1>:
9d005a08:	00876024 	and	t4,a0,a3
9d005a0c:	01856826 	xor	t5,t4,a1
9d005a10:	05a00010 	bltz	t5,9d005a54 <Bsub1>
9d005a14:	00000000 	nop
9d005a18:	010a4021 	addu	t0,t0,t2
9d005a1c:	010a682b 	sltu	t5,t0,t2
9d005a20:	11a00017 	beqz	t5,9d005a80 <Bres>
9d005a24:	00000000 	nop
9d005a28:	310d0001 	andi	t5,t0,0x1
9d005a2c:	11a00002 	beqz	t5,9d005a38 <i7>
9d005a30:	00000000 	nop
9d005a34:	35080002 	ori	t0,t0,0x2

9d005a38 <i7>:
9d005a38:	00084042 	srl	t0,t0,0x1
9d005a3c:	25290001 	addiu	t1,t1,1
9d005a40:	240100ff 	li	at,255
9d005a44:	1521000e 	bne	t1,at,9d005a80 <Bres>
9d005a48:	00000000 	nop
9d005a4c:	1000000c 	b	9d005a80 <Bres>
9d005a50:	24080000 	li	t0,0

9d005a54 <Bsub1>:
9d005a54:	010a682b 	sltu	t5,t0,t2
9d005a58:	11a00004 	beqz	t5,9d005a6c <i9>
9d005a5c:	010a4023 	subu	t0,t0,t2
9d005a60:	00084023 	negu	t0,t0
9d005a64:	10000003 	b	9d005a74 <e9>
9d005a68:	01876026 	xor	t4,t4,a3

9d005a6c <i9>:
9d005a6c:	11000050 	beqz	t0,9d005bb0 <Bzer>
9d005a70:	00000000 	nop

9d005a74 <e9>:
9d005a74:	71063020 	clz	a2,t0
9d005a78:	01264823 	subu	t1,t1,a2
9d005a7c:	00c84004 	sllv	t0,t0,a2

9d005a80 <Bres>:
9d005a80:	1920000e 	blez	t1,9d005abc <Bund>
9d005a84:	00000000 	nop

9d005a88 <Blab12>:
9d005a88:	25080080 	addiu	t0,t0,128
9d005a8c:	2d0d0080 	sltiu	t5,t0,128
9d005a90:	012d4821 	addu	t1,t1,t5
9d005a94:	00086a02 	srl	t5,t0,0x8
9d005a98:	31ad0001 	andi	t5,t5,0x1
9d005a9c:	010d4023 	subu	t0,t0,t5
9d005aa0:	00084040 	sll	t0,t0,0x1
9d005aa4:	00084242 	srl	t0,t0,0x9
9d005aa8:	00096dc0 	sll	t5,t1,0x17
9d005aac:	010d4025 	or	t0,t0,t5
9d005ab0:	010c1025 	or	v0,t0,t4

9d005ab4 <B999>:
9d005ab4:	03e00008 	jr	ra
9d005ab8:	00000000 	nop

9d005abc <Bund>:
9d005abc:	24060001 	li	a2,1
9d005ac0:	00c93023 	subu	a2,a2,t1
9d005ac4:	2cc10020 	sltiu	at,a2,32
9d005ac8:	10200039 	beqz	at,9d005bb0 <Bzer>
9d005acc:	00000000 	nop
9d005ad0:	3c018000 	lui	at,0x8000
9d005ad4:	01014025 	or	t0,t0,at
9d005ad8:	240d0020 	li	t5,32
9d005adc:	01a66823 	subu	t5,t5,a2
9d005ae0:	01a84804 	sllv	t1,t0,t5
9d005ae4:	11200002 	beqz	t1,9d005af0 <i10>
9d005ae8:	00c84006 	srlv	t0,t0,a2
9d005aec:	35080001 	ori	t0,t0,0x1

9d005af0 <i10>:
9d005af0:	24090000 	li	t1,0
9d005af4:	250d0080 	addiu	t5,t0,128
9d005af8:	05a1ffe3 	bgez	t5,9d005a88 <Blab12>
9d005afc:	00000000 	nop
9d005b00:	1000ffe1 	b	9d005a88 <Blab12>
9d005b04:	24090001 	li	t1,1

9d005b08 <BspecA>:
9d005b08:	1520000e 	bnez	t1,9d005b44 <i12>
9d005b0c:	00000000 	nop
9d005b10:	01084021 	addu	t0,t0,t0
9d005b14:	11000005 	beqz	t0,9d005b2c <i13>
9d005b18:	00000000 	nop
9d005b1c:	710c6020 	clz	t4,t0
9d005b20:	012c4823 	subu	t1,t1,t4
9d005b24:	1000ff98 	b	9d005988 <Blab1>
9d005b28:	01884004 	sllv	t0,t0,t4

9d005b2c <i13>:
9d005b2c:	240100ff 	li	at,255
9d005b30:	1161000f 	beq	t3,at,9d005b70 <BspecB>
9d005b34:	00000000 	nop
9d005b38:	3c018000 	lui	at,0x8000
9d005b3c:	14a10018 	bne	a1,at,9d005ba0 <BretB>
9d005b40:	00000000 	nop

9d005b44 <i12>:
9d005b44:	01086821 	addu	t5,t0,t0
9d005b48:	15a0001b 	bnez	t5,9d005bb8 <Bnan>
9d005b4c:	00000000 	nop
9d005b50:	240100ff 	li	at,255
9d005b54:	15610014 	bne	t3,at,9d005ba8 <BretA>
9d005b58:	00000000 	nop
9d005b5c:	00856826 	xor	t5,a0,a1
9d005b60:	05a00015 	bltz	t5,9d005bb8 <Bnan>
9d005b64:	00000000 	nop
9d005b68:	1000000d 	b	9d005ba0 <BretB>
9d005b6c:	00000000 	nop

9d005b70 <BspecB>:
9d005b70:	15600008 	bnez	t3,9d005b94 <i15>
9d005b74:	00000000 	nop
9d005b78:	014a5021 	addu	t2,t2,t2
9d005b7c:	1140000a 	beqz	t2,9d005ba8 <BretA>
9d005b80:	00000000 	nop
9d005b84:	714c6020 	clz	t4,t2
9d005b88:	016c5823 	subu	t3,t3,t4
9d005b8c:	1000ff82 	b	9d005998 <Blab2>
9d005b90:	018a5004 	sllv	t2,t2,t4

9d005b94 <i15>:
9d005b94:	014a6821 	addu	t5,t2,t2
9d005b98:	15a00007 	bnez	t5,9d005bb8 <Bnan>
9d005b9c:	00000000 	nop

9d005ba0 <BretB>:
9d005ba0:	1000ffc4 	b	9d005ab4 <B999>
9d005ba4:	00051025 	or	v0,zero,a1

9d005ba8 <BretA>:
9d005ba8:	1000ffc2 	b	9d005ab4 <B999>
9d005bac:	00041025 	or	v0,zero,a0

9d005bb0 <Bzer>:
9d005bb0:	1000ffc0 	b	9d005ab4 <B999>
9d005bb4:	24020000 	li	v0,0

9d005bb8 <Bnan>:
9d005bb8:	1000ffbe 	b	9d005ab4 <B999>
9d005bbc:	3c02ffc0 	lui	v0,0xffc0
9d005bc0:	00000000 	nop

Disassembly of section .dinit:

9d005bc4 <.dinit>:
9d005bc4:	a00002b8 	sb	zero,696(zero)
9d005bc8:	00000064 	0x64
9d005bcc:	00000000 	nop
9d005bd0:	a0000008 	sb	zero,8(zero)
9d005bd4:	00000004 	sllv	zero,zero,zero
9d005bd8:	00000000 	nop
9d005bdc:	a0000010 	sb	zero,16(zero)
9d005be0:	000000c0 	ehb
9d005be4:	00000000 	nop
9d005be8:	a0000338 	sb	zero,824(zero)
9d005bec:	00000018 	mult	zero,zero
9d005bf0:	00000001 	movf	zero,zero,$fcc0
9d005bf4:	0000b203 	sra	s6,zero,0x8
9d005bf8:	0006ef7f 	0x6ef7f
9d005bfc:	004567fc 	0x4567fc
9d005c00:	02d8261f 	0x2d8261f
9d005c04:	2aaaab57 	slti	t2,s5,-21673
9d005c08:	80000053 	lb	zero,83(zero)
9d005c0c:	a0000350 	sb	zero,848(zero)
9d005c10:	00000004 	sllv	zero,zero,zero
9d005c14:	00000001 	movf	zero,zero,$fcc0
9d005c18:	00000001 	movf	zero,zero,$fcc0
9d005c1c:	a00001a4 	sb	zero,420(zero)
9d005c20:	0000008c 	syscall	0x2
9d005c24:	00000001 	movf	zero,zero,$fcc0
9d005c28:	171d9407 	bne	t8,sp,9cfeac48 <_bmxdkpba_address+0x9cfcac48>
9d005c2c:	2aac64d8 	slti	t4,s5,25816
9d005c30:	80000089 	lb	zero,137(zero)
9d005c34:	b17217f8 	0xb17217f8
9d005c38:	0000007e 	0x7e
9d005c3c:	934b108a 	lbu	t3,4234(k0)
9d005c40:	0000007e 	0x7e
9d005c44:	f0a450d1 	0xf0a450d1
9d005c48:	0000007d 	0x7d
9d005c4c:	bfd7d1df 	cache	0x17,-11809(s8)
9d005c50:	0000007d 	0x7d
9d005c54:	934b108a 	lbu	t3,4234(k0)
9d005c58:	0000007d 	0x7d
9d005c5c:	d49f69e4 	ldc1	$f31,27108(a0)
9d005c60:	0000007c 	0x7c
9d005c64:	88bc7411 	lwl	gp,29713(a1)
9d005c68:	0000007c 	0x7c
9d005c6c:	842cc5ad 	lh	t4,-14931(at)
9d005c70:	0000007b 	0x7b
	...
9d005c7c:	f1383b71 	0xf1383b71
9d005c80:	0000007b 	0x7b
9d005c84:	e47fbe3d 	swc1	$f31,-16835(v1)
9d005c88:	0000007c 	0x7c
9d005c8c:	a30c5e11 	sb	t4,24081(t8)
9d005c90:	0000007d 	0x7d
9d005c94:	cf991f66 	pref	0x19,8038(gp)
9d005c98:	0000007d 	0x7d
9d005c9c:	f8947afd 	sdc2	$20,31485(a0)
9d005ca0:	0000007d 	0x7d
9d005ca4:	8f42faf4 	lw	v0,-1292(k0)
9d005ca8:	0000007e 	0x7e
9d005cac:	a0ec7f42 	sb	t4,32578(a3)
9d005cb0:	0000007e 	0x7e
9d005cb4:	a000031c 	sb	zero,796(zero)
9d005cb8:	0000001c 	0x1c
9d005cbc:	00000001 	movf	zero,zero,$fcc0
9d005cc0:	00050750 	0x50750
9d005cc4:	002bbd27 	0x2bbd27
9d005cc8:	013b248f 	0x13b248f
9d005ccc:	071ac4b3 	0x71ac4b3
9d005cd0:	1ebfc01b 	0x1ebfc01b
9d005cd4:	58b90c45 	0x58b90c45
9d005cd8:	80000042 	lb	zero,66(zero)
9d005cdc:	a000000c 	sb	zero,12(zero)
9d005ce0:	00000004 	sllv	zero,zero,zero
9d005ce4:	00000000 	nop
9d005ce8:	a00000d0 	sb	zero,208(zero)
9d005cec:	000000d4 	0xd4
9d005cf0:	00000001 	movf	zero,zero,$fcc0
9d005cf4:	a0000134 	sb	zero,308(zero)
9d005cf8:	a0000150 	sb	zero,336(zero)
9d005cfc:	a000016c 	sb	zero,364(zero)
9d005d00:	a0000130 	sb	zero,304(zero)
9d005d04:	a0000230 	sb	zero,560(zero)
9d005d08:	00000001 	movf	zero,zero,$fcc0
	...
9d005d58:	ffffffff 	sdc3	$31,-1(ra)
9d005d5c:	ffffffff 	sdc3	$31,-1(ra)
9d005d60:	00000000 	nop
9d005d64:	00000040 	ssnop
9d005d68:	00001009 	jalr	v0,zero
9d005d6c:	00000000 	nop
9d005d70:	9d007ae8 	0x9d007ae8
9d005d74:	ffffffff 	sdc3	$31,-1(ra)
	...
9d005d84:	00011002 	srl	v0,at,0x0
9d005d88:	00000000 	nop
9d005d8c:	9d007ae8 	0x9d007ae8
9d005d90:	ffffffff 	sdc3	$31,-1(ra)
	...
9d005da0:	00020002 	srl	zero,v0,0x0
9d005da4:	00000000 	nop
9d005da8:	9d007ae8 	0x9d007ae8
9d005dac:	fffffffd 	sdc3	$31,-3(ra)
	...
9d005dc8:	a0000230 	sb	zero,560(zero)
9d005dcc:	00000088 	0x88
9d005dd0:	00000000 	nop
9d005dd4:	a0000000 	sb	zero,0(zero)
9d005dd8:	00000004 	sllv	zero,zero,zero
9d005ddc:	00000001 	movf	zero,zero,$fcc0
9d005de0:	a00000d0 	sb	zero,208(zero)
9d005de4:	a0000004 	sb	zero,4(zero)
9d005de8:	00000004 	sllv	zero,zero,zero
9d005dec:	00000001 	movf	zero,zero,$fcc0
9d005df0:	00000002 	srl	zero,zero,0x0
9d005df4:	00000000 	nop
9d005df8:	22222222 	addi	v0,s1,8738
9d005dfc:	22222222 	addi	v0,s1,8738
9d005e00:	22222222 	addi	v0,s1,8738

Disassembly of section .text.fp32div:

9d005e04 <__divsf3>:
9d005e04:	3c0b8000 000445c2 310800ff 000555c2     ...<.E.....1.U..
9d005e14:	314a00ff 00043a00 00eb3825 00054a00     ..J1.:..%8...J..
9d005e24:	012b4825 00857026 016e5824 250effff     %H+.&p..$Xn....%
9d005e34:	2dc100fe 1020003f 00000000              ...-?. .....

9d005e40 <Dlab1>:
9d005e40:	254effff 	addiu	t6,t2,-1
9d005e44:	2dc100fe 	sltiu	at,t6,254
9d005e48:	10200053 	beqz	at,9d005f98 <DspecB>
9d005e4c:	00000000 	nop

9d005e50 <Dlab2>:
9d005e50:	00e9082b 	sltu	at,a3,t1
9d005e54:	14200003 	bnez	at,9d005e64 <i27>
9d005e58:	00000000 	nop
9d005e5c:	00073842 	srl	a3,a3,0x1
9d005e60:	25080001 	addiu	t0,t0,1

9d005e64 <i27>:
9d005e64:	00096382 	srl	t4,t1,0xe
9d005e68:	018001f4 	teq	t4,zero,0x7
9d005e6c:	00ec001b 	divu	zero,a3,t4
9d005e70:	00002012 	mflo	a0
9d005e74:	00003010 	mfhi	a2
9d005e78:	312d3fff 	andi	t5,t1,0x3fff
9d005e7c:	01a40019 	multu	t5,a0
9d005e80:	00002812 	mflo	a1
9d005e84:	00063380 	sll	a2,a2,0xe
9d005e88:	00c5702b 	sltu	t6,a2,a1
9d005e8c:	11c00004 	beqz	t6,9d005ea0 <i28>
9d005e90:	00c53023 	subu	a2,a2,a1
9d005e94:	2484ffff 	addiu	a0,a0,-1
9d005e98:	00c93021 	addu	a2,a2,t1
9d005e9c:	00c9702b 	sltu	t6,a2,t1

9d005ea0 <i28>:
9d005ea0:	018001f4 	teq	t4,zero,0x7
9d005ea4:	00cc001b 	divu	zero,a2,t4
9d005ea8:	00003812 	mflo	a3
9d005eac:	00003010 	mfhi	a2
9d005eb0:	01a70019 	multu	t5,a3
9d005eb4:	00002812 	mflo	a1
9d005eb8:	00063380 	sll	a2,a2,0xe
9d005ebc:	00c5702b 	sltu	t6,a2,a1
9d005ec0:	11c00004 	beqz	t6,9d005ed4 <i29>
9d005ec4:	00c53023 	subu	a2,a2,a1
9d005ec8:	24e7ffff 	addiu	a3,a3,-1
9d005ecc:	00c93021 	addu	a2,a2,t1
9d005ed0:	00c9702b 	sltu	t6,a2,t1

9d005ed4 <i29>:
9d005ed4:	00047380 	sll	t6,a0,0xe
9d005ed8:	00ee3821 	addu	a3,a3,t6
9d005edc:	10c00002 	beqz	a2,9d005ee8 <i30>
9d005ee0:	00073900 	sll	a3,a3,0x4
9d005ee4:	34e70001 	ori	a3,a3,0x1

9d005ee8 <i30>:
9d005ee8:	240e007e 	li	t6,126
9d005eec:	01ca7023 	subu	t6,t6,t2
9d005ef0:	010e4021 	addu	t0,t0,t6
9d005ef4:	250effff 	addiu	t6,t0,-1
9d005ef8:	2dc100fe 	sltiu	at,t6,254
9d005efc:	10200034 	beqz	at,9d005fd0 <Doveund>
9d005f00:	00000000 	nop

9d005f04 <Dlab8>:
9d005f04:	24e70080 	addiu	a3,a3,128
9d005f08:	2cee0080 	sltiu	t6,a3,128
9d005f0c:	010e4021 	addu	t0,t0,t6
9d005f10:	00077202 	srl	t6,a3,0x8
9d005f14:	31ce0001 	andi	t6,t6,0x1
9d005f18:	00ee3823 	subu	a3,a3,t6
9d005f1c:	00073840 	sll	a3,a3,0x1
9d005f20:	00073a42 	srl	a3,a3,0x9
9d005f24:	000875c0 	sll	t6,t0,0x17
9d005f28:	00ee3825 	or	a3,a3,t6
9d005f2c:	00eb1025 	or	v0,a3,t3

9d005f30 <D999>:
9d005f30:	03e00008 	jr	ra
9d005f34:	00000000 	nop

9d005f38 <DspecA>:
9d005f38:	15000008 	bnez	t0,9d005f5c <i31>
9d005f3c:	00000000 	nop
9d005f40:	00e73821 	addu	a3,a3,a3
9d005f44:	10e00005 	beqz	a3,9d005f5c <i31>
9d005f48:	00000000 	nop
9d005f4c:	70ec6020 	clz	t4,a3
9d005f50:	010c4023 	subu	t0,t0,t4
9d005f54:	1000ffba 	b	9d005e40 <Dlab1>
9d005f58:	01873804 	sllv	a3,a3,t4

9d005f5c <i31>:
9d005f5c:	15480004 	bne	t2,t0,9d005f70 <i33>
9d005f60:	00000000 	nop
9d005f64:	01297021 	addu	t6,t1,t1
9d005f68:	11c0002f 	beqz	t6,9d006028 <Dnan>
9d005f6c:	00000000 	nop

9d005f70 <i33>:
9d005f70:	240100ff 	li	at,255
9d005f74:	11410008 	beq	t2,at,9d005f98 <DspecB>
9d005f78:	00000000 	nop
9d005f7c:	11000012 	beqz	t0,9d005fc8 <Dzer>
9d005f80:	00000000 	nop
9d005f84:	00e77021 	addu	t6,a3,a3
9d005f88:	15c00027 	bnez	t6,9d006028 <Dnan>
9d005f8c:	00000000 	nop
9d005f90:	10000022 	b	9d00601c <Dinf>
9d005f94:	00000000 	nop

9d005f98 <DspecB>:
9d005f98:	15400008 	bnez	t2,9d005fbc <i34>
9d005f9c:	00000000 	nop
9d005fa0:	01294821 	addu	t1,t1,t1
9d005fa4:	1120001d 	beqz	t1,9d00601c <Dinf>
9d005fa8:	00000000 	nop
9d005fac:	712c6020 	clz	t4,t1
9d005fb0:	014c5023 	subu	t2,t2,t4
9d005fb4:	1000ffa6 	b	9d005e50 <Dlab2>
9d005fb8:	01894804 	sllv	t1,t1,t4

9d005fbc <i34>:
9d005fbc:	01297021 	addu	t6,t1,t1
9d005fc0:	15c00019 	bnez	t6,9d006028 <Dnan>
9d005fc4:	00000000 	nop

9d005fc8 <Dzer>:
9d005fc8:	1000ffd9 	b	9d005f30 <D999>
9d005fcc:	000b1025 	or	v0,zero,t3

9d005fd0 <Doveund>:
9d005fd0:	1d000012 	bgtz	t0,9d00601c <Dinf>
9d005fd4:	00000000 	nop
9d005fd8:	240c0001 	li	t4,1
9d005fdc:	01886023 	subu	t4,t4,t0
9d005fe0:	2d810020 	sltiu	at,t4,32
9d005fe4:	1020fff8 	beqz	at,9d005fc8 <Dzer>
9d005fe8:	00000000 	nop
9d005fec:	240e0020 	li	t6,32
9d005ff0:	01cc7023 	subu	t6,t6,t4
9d005ff4:	01c74004 	sllv	t0,a3,t6
9d005ff8:	11000002 	beqz	t0,9d006004 <i37>
9d005ffc:	01873806 	srlv	a3,a3,t4
9d006000:	34e70002 	ori	a3,a3,0x2

9d006004 <i37>:
9d006004:	24080000 	li	t0,0
9d006008:	24ee0080 	addiu	t6,a3,128
9d00600c:	05c1ffbd 	bgez	t6,9d005f04 <Dlab8>
9d006010:	00000000 	nop
9d006014:	1000ffbb 	b	9d005f04 <Dlab8>
9d006018:	24080001 	li	t0,1

9d00601c <Dinf>:
9d00601c:	3c017f80 	lui	at,0x7f80
9d006020:	1000ffc3 	b	9d005f30 <D999>
9d006024:	01611025 	or	v0,t3,at

9d006028 <Dnan>:
9d006028:	1000ffc1 	b	9d005f30 <D999>
9d00602c:	3c02ffc0 	lui	v0,0xffc0
9d006030:	00000000 	nop

Disassembly of section .text:

9d006034 <fpexexp>:
9d006034:	000637c3 00064025 3c0ab8aa 354a3b29     .7..%@.....<);J5
9d006044:	01440019 00005012 00005810 19600006     ..D..P...X....`.
9d006054:	00000000 0140682a 014a5021 016b5821     ....*h@.!PJ.!Xk.
9d006064:	016d5821 24a5ffff                       !Xm....$

9d00606c <i1>:
9d00606c:	24070000 	li	a3,0
9d006070:	24a5ff83 	addiu	a1,a1,-125
9d006074:	2ca10008 	sltiu	at,a1,8
9d006078:	1420000a 	bnez	at,9d0060a4 <i2>
9d00607c:	00000000 	nop
9d006080:	1ca0002f 	bgtz	a1,9d006140 <Aovr>
9d006084:	00000000 	nop
9d006088:	00055023 	negu	t2,a1
9d00608c:	2d410020 	sltiu	at,t2,32
9d006090:	14200002 	bnez	at,9d00609c <L1>
9d006094:	00000000 	nop
9d006098:	340b0000 	li	t3,0x0

9d00609c <L1>:
9d00609c:	10000007 	b	9d0060bc <e2>
9d0060a0:	014b5806 	srlv	t3,t3,t2

9d0060a4 <i2>:
9d0060a4:	10a00005 	beqz	a1,9d0060bc <e2>
9d0060a8:	00000000 	nop
9d0060ac:	240d0020 	li	t5,32
9d0060b0:	01a56823 	subu	t5,t5,a1
9d0060b4:	01ab3806 	srlv	a3,t3,t5
9d0060b8:	00ab5804 	sllv	t3,t3,a1

9d0060bc <e2>:
9d0060bc:	05610005 	bgez	t3,9d0060d4 <i4>
9d0060c0:	00000000 	nop
9d0060c4:	000b5823 	negu	t3,t3
9d0060c8:	2401ffff 	li	at,-1
9d0060cc:	01014026 	xor	t0,t0,at
9d0060d0:	24e70001 	addiu	a3,a3,1

9d0060d4 <i4>:
9d0060d4:	00e62826 	xor	a1,a3,a2
9d0060d8:	00a62823 	subu	a1,a1,a2
9d0060dc:	24a5007f 	addiu	a1,a1,127
9d0060e0:	3c0ca000 	lui	t4,0xa000
9d0060e4:	258c031c 	addiu	t4,t4,796
9d0060e8:	8d840000 	lw	a0,0(t4)
9d0060ec:	258c0004 	addiu	t4,t4,4
9d0060f0:	24090005 	li	t1,5

9d0060f4 <b5>:
9d0060f4:	01640019 	multu	t3,a0
9d0060f8:	00002010 	mfhi	a0
9d0060fc:	00882026 	xor	a0,a0,t0
9d006100:	00882023 	subu	a0,a0,t0
9d006104:	8d870000 	lw	a3,0(t4)
9d006108:	258c0004 	addiu	t4,t4,4
9d00610c:	00872021 	addu	a0,a0,a3
9d006110:	2529ffff 	addiu	t1,t1,-1
9d006114:	0521fff7 	bgez	t1,9d0060f4 <b5>
9d006118:	00000000 	nop
9d00611c:	04800003 	bltz	a0,9d00612c <Aret>
9d006120:	00000000 	nop
9d006124:	00042040 	sll	a0,a0,0x1
9d006128:	24a5ffff 	addiu	a1,a1,-1

9d00612c <Aret>:
9d00612c:	00041025 	or	v0,zero,a0
9d006130:	00051825 	or	v1,zero,a1
9d006134:	0006c025 	or	t8,zero,a2

9d006138 <A999>:
9d006138:	03e00008 	jr	ra
9d00613c:	00000000 	nop

9d006140 <Aovr>:
9d006140:	3c048000 	lui	a0,0x8000
9d006144:	1000fff9 	b	9d00612c <Aret>
9d006148:	3905ffff 	xori	a1,t0,0xffff

9d00614c <__mchp_expf>:
9d00614c:	27bdfff8 afbf0000 000435c2 30c600ff     ...'.....5.....0
9d00615c:	00042a00 3c018000 00a12825 00043825     .*.....<%(..%8..
9d00616c:	24c9ffff 2d2100fe 10200015 00000000     ...$..!-.. .....
9d00617c:	afa40004 00052025 00062825 0f40180d     ....% ..%(....@.
9d00618c:	00073025 00183825 00033025 00022825     %0..%8..%0..%(..
9d00619c:	8fa40004 24c9ffff 2d2100fe 10200015     .......$..!-.. .
9d0061ac:	00000000 00051040 00021242 00064dc0     ....@...B....M..
9d0061bc:	00491025                                %.I.

9d0061c0 <B999>:
9d0061c0:	8fbf0000 	lw	ra,0(sp)
9d0061c4:	03e00008 	jr	ra
9d0061c8:	27bd0008 	addiu	sp,sp,8

9d0061cc <Bspec>:
9d0061cc:	14c00003 	bnez	a2,9d0061dc <i7>
9d0061d0:	00000000 	nop
9d0061d4:	1000fffa 	b	9d0061c0 <B999>
9d0061d8:	3c023f80 	lui	v0,0x3f80

9d0061dc <i7>:
9d0061dc:	00054840 	sll	t1,a1,0x1
9d0061e0:	11200003 	beqz	t1,9d0061f0 <i8>
9d0061e4:	00000000 	nop
9d0061e8:	1000fff5 	b	9d0061c0 <B999>
9d0061ec:	3c02ffc0 	lui	v0,0xffc0

9d0061f0 <i8>:
9d0061f0:	04810003 	bgez	a0,9d006200 <Bundove>
9d0061f4:	00000000 	nop
9d0061f8:	1000fff1 	b	9d0061c0 <B999>
9d0061fc:	24020000 	li	v0,0

9d006200 <Bundove>:
9d006200:	0481000a 	bgez	a0,9d00622c <i10>
9d006204:	00000000 	nop
9d006208:	24080009 	li	t0,9
9d00620c:	01064023 	subu	t0,t0,a2
9d006210:	2d010020 	sltiu	at,t0,32
9d006214:	14200002 	bnez	at,9d006220 <L2>
9d006218:	00000000 	nop
9d00621c:	34050000 	li	a1,0x0

9d006220 <L2>:
9d006220:	01052806 	srlv	a1,a1,t0
9d006224:	1000ffe6 	b	9d0061c0 <B999>
9d006228:	00051025 	or	v0,zero,a1

9d00622c <i10>:
9d00622c:	1000ffe4 	b	9d0061c0 <B999>
9d006230:	3c027f80 	lui	v0,0x7f80
9d006234:	00000000 	nop

Disassembly of section .text.fp32mul:

9d006238 <__mulsf3>:
9d006238:	00043dc2 30e700ff 00054dc2 312900ff     .=.....0.M....)1
9d006248:	3c0a8000 00043200 00ca3025 00054200     ...<.2..%0...B..
9d006258:	010a4025 00856026 014c5024 24ecffff     %@..&`..$PL....$
9d006268:	2d8100fe 10200021 00000000              ...-!. .....

9d006274 <Clab1>:
9d006274:	252cffff 	addiu	t4,t1,-1
9d006278:	2d8100fe 	sltiu	at,t4,254
9d00627c:	10200036 	beqz	at,9d006358 <CspecB>
9d006280:	00000000 	nop

9d006284 <Clab2>:
9d006284:	00c80019 	multu	a2,t0
9d006288:	00005812 	mflo	t3
9d00628c:	11600002 	beqz	t3,9d006298 <i17>
9d006290:	00003010 	mfhi	a2
9d006294:	34c60001 	ori	a2,a2,0x1

9d006298 <i17>:
9d006298:	04c00003 	bltz	a2,9d0062a8 <i18>
9d00629c:	00000000 	nop
9d0062a0:	00063040 	sll	a2,a2,0x1
9d0062a4:	24e7ffff 	addiu	a3,a3,-1

9d0062a8 <i18>:
9d0062a8:	252cff82 	addiu	t4,t1,-126
9d0062ac:	00ec3821 	addu	a3,a3,t4
9d0062b0:	24ecffff 	addiu	t4,a3,-1
9d0062b4:	2d8100fe 	sltiu	at,t4,254
9d0062b8:	1020003a 	beqz	at,9d0063a4 <Coveund>
9d0062bc:	00000000 	nop

9d0062c0 <Clab8>:
9d0062c0:	24c60080 	addiu	a2,a2,128
9d0062c4:	2ccc0080 	sltiu	t4,a2,128
9d0062c8:	00ec3821 	addu	a3,a3,t4
9d0062cc:	00066202 	srl	t4,a2,0x8
9d0062d0:	318c0001 	andi	t4,t4,0x1
9d0062d4:	00cc3023 	subu	a2,a2,t4
9d0062d8:	00063040 	sll	a2,a2,0x1
9d0062dc:	00063242 	srl	a2,a2,0x9
9d0062e0:	000765c0 	sll	t4,a3,0x17
9d0062e4:	00cc3025 	or	a2,a2,t4
9d0062e8:	00ca1025 	or	v0,a2,t2

9d0062ec <C999>:
9d0062ec:	03e00008 	jr	ra
9d0062f0:	00000000 	nop

9d0062f4 <CspecA>:
9d0062f4:	14e0000d 	bnez	a3,9d00632c <i19>
9d0062f8:	00000000 	nop
9d0062fc:	00c63021 	addu	a2,a2,a2
9d006300:	10c00005 	beqz	a2,9d006318 <i20>
9d006304:	00000000 	nop
9d006308:	70cb5820 	clz	t3,a2
9d00630c:	00eb3823 	subu	a3,a3,t3
9d006310:	1000ffd8 	b	9d006274 <Clab1>
9d006314:	01663004 	sllv	a2,a2,t3

9d006318 <i20>:
9d006318:	240100ff 	li	at,255
9d00631c:	1121001f 	beq	t1,at,9d00639c <Cnan>
9d006320:	00000000 	nop
9d006324:	10000015 	b	9d00637c <Czer>
9d006328:	00000000 	nop

9d00632c <i19>:
9d00632c:	00c66021 	addu	t4,a2,a2
9d006330:	1580001a 	bnez	t4,9d00639c <Cnan>
9d006334:	00000000 	nop
9d006338:	15200004 	bnez	t1,9d00634c <i21>
9d00633c:	00000000 	nop
9d006340:	01086021 	addu	t4,t0,t0
9d006344:	11800015 	beqz	t4,9d00639c <Cnan>
9d006348:	00000000 	nop

9d00634c <i21>:
9d00634c:	240100ff 	li	at,255
9d006350:	1521000f 	bne	t1,at,9d006390 <Cinf>
9d006354:	00000000 	nop

9d006358 <CspecB>:
9d006358:	1520000a 	bnez	t1,9d006384 <i22>
9d00635c:	00000000 	nop
9d006360:	01084021 	addu	t0,t0,t0
9d006364:	11000005 	beqz	t0,9d00637c <Czer>
9d006368:	00000000 	nop
9d00636c:	710b5820 	clz	t3,t0
9d006370:	012b4823 	subu	t1,t1,t3
9d006374:	1000ffc3 	b	9d006284 <Clab2>
9d006378:	01684004 	sllv	t0,t0,t3

9d00637c <Czer>:
9d00637c:	1000ffdb 	b	9d0062ec <C999>
9d006380:	000a1025 	or	v0,zero,t2

9d006384 <i22>:
9d006384:	01086021 	addu	t4,t0,t0
9d006388:	15800004 	bnez	t4,9d00639c <Cnan>
9d00638c:	00000000 	nop

9d006390 <Cinf>:
9d006390:	3c017f80 	lui	at,0x7f80
9d006394:	1000ffd5 	b	9d0062ec <C999>
9d006398:	01411025 	or	v0,t2,at

9d00639c <Cnan>:
9d00639c:	1000ffd3 	b	9d0062ec <C999>
9d0063a0:	3c02ffc0 	lui	v0,0xffc0

9d0063a4 <Coveund>:
9d0063a4:	1ce0fffa 	bgtz	a3,9d006390 <Cinf>
9d0063a8:	00000000 	nop
9d0063ac:	240b0001 	li	t3,1
9d0063b0:	01675823 	subu	t3,t3,a3
9d0063b4:	2d610020 	sltiu	at,t3,32
9d0063b8:	1020fff0 	beqz	at,9d00637c <Czer>
9d0063bc:	00000000 	nop
9d0063c0:	240c0020 	li	t4,32
9d0063c4:	018b6023 	subu	t4,t4,t3
9d0063c8:	01863804 	sllv	a3,a2,t4
9d0063cc:	10e00002 	beqz	a3,9d0063d8 <i25>
9d0063d0:	01663006 	srlv	a2,a2,t3
9d0063d4:	34c60002 	ori	a2,a2,0x2

9d0063d8 <i25>:
9d0063d8:	24070000 	li	a3,0
9d0063dc:	24cc0080 	addiu	t4,a2,128
9d0063e0:	0581ffb7 	bgez	t4,9d0062c0 <Clab8>
9d0063e4:	00000000 	nop
9d0063e8:	1000ffb5 	b	9d0062c0 <Clab8>
9d0063ec:	24070001 	li	a3,1
9d0063f0:	00000000 	nop

Disassembly of section .text:

9d0063f4 <fptan>:
9d0063f4:	27bdfff0 	addiu	sp,sp,-16
9d0063f8:	afbf0000 	sw	ra,0(sp)
9d0063fc:	0f401a54 	jal	9d006950 <fpreduct>
9d006400:	afa40004 	sw	a0,4(sp)
9d006404:	00186025 	or	t4,zero,t8
9d006408:	00035825 	or	t3,zero,v1
9d00640c:	00025025 	or	t2,zero,v0
9d006410:	05610003 	bgez	t3,9d006420 <i17>
9d006414:	8fa40004 	lw	a0,4(sp)
9d006418:	1000005d 	b	9d006590 <D999>
9d00641c:	000a1025 	or	v0,zero,t2

9d006420 <i17>:
9d006420:	000c7780 	sll	t6,t4,0x1e
9d006424:	008e2026 	xor	a0,a0,t6
9d006428:	3c018000 	lui	at,0x8000
9d00642c:	00812024 	and	a0,a0,at
9d006430:	014a0019 	multu	t2,t2
9d006434:	00002810 	mfhi	a1
9d006438:	2406007e 	li	a2,126
9d00643c:	00cb3023 	subu	a2,a2,t3
9d006440:	00063040 	sll	a2,a2,0x1
9d006444:	2cc10020 	sltiu	at,a2,32
9d006448:	14200002 	bnez	at,9d006454 <L3>
9d00644c:	00000000 	nop
9d006450:	34050000 	li	a1,0x0

9d006454 <L3>:
9d006454:	00c52806 	srlv	a1,a1,a2
9d006458:	3c0da000 	lui	t5,0xa000
9d00645c:	25ad0338 	addiu	t5,t5,824
9d006460:	8da70000 	lw	a3,0(t5)
9d006464:	25ad0004 	addiu	t5,t5,4

9d006468 <b18>:
9d006468:	00a70019 	multu	a1,a3
9d00646c:	00003810 	mfhi	a3
9d006470:	8da60000 	lw	a2,0(t5)
9d006474:	25ad0004 	addiu	t5,t5,4
9d006478:	04c1fffb 	bgez	a2,9d006468 <b18>
9d00647c:	00e63821 	addu	a3,a3,a2
9d006480:	256b0002 	addiu	t3,t3,2
9d006484:	00073823 	negu	a3,a3
9d006488:	04e00003 	bltz	a3,9d006498 <i19>
9d00648c:	00000000 	nop
9d006490:	00073840 	sll	a3,a3,0x1
9d006494:	256bffff 	addiu	t3,t3,-1

9d006498 <i19>:
9d006498:	258effff 	addiu	t6,t4,-1
9d00649c:	31ce0002 	andi	t6,t6,0x2
9d0064a0:	11c00019 	beqz	t6,9d006508 <i20>
9d0064a4:	00000000 	nop
9d0064a8:	000a5042 	srl	t2,t2,0x1
9d0064ac:	00074402 	srl	t0,a3,0x10
9d0064b0:	010001f4 	teq	t0,zero,0x7
9d0064b4:	0148001b 	divu	zero,t2,t0
9d0064b8:	00002812 	mflo	a1
9d0064bc:	00004810 	mfhi	t1
9d0064c0:	30e6ffff 	andi	a2,a3,0xffff
9d0064c4:	00c50019 	multu	a2,a1
9d0064c8:	00005012 	mflo	t2
9d0064cc:	00094c00 	sll	t1,t1,0x10
9d0064d0:	012a702b 	sltu	t6,t1,t2
9d0064d4:	11c00006 	beqz	t6,9d0064f0 <i21>
9d0064d8:	012a4823 	subu	t1,t1,t2

9d0064dc <b22>:
9d0064dc:	24a5ffff 	addiu	a1,a1,-1
9d0064e0:	01274821 	addu	t1,t1,a3
9d0064e4:	0127082b 	sltu	at,t1,a3
9d0064e8:	1020fffc 	beqz	at,9d0064dc <b22>
9d0064ec:	00000000 	nop

9d0064f0 <i21>:
9d0064f0:	010001f4 	teq	t0,zero,0x7
9d0064f4:	0128001b 	divu	zero,t1,t0
9d0064f8:	00004012 	mflo	t0
9d0064fc:	00055400 	sll	t2,a1,0x10
9d006500:	1000001a 	b	9d00656c <e20>
9d006504:	01485021 	addu	t2,t2,t0

9d006508 <i20>:
9d006508:	240e00fe 	li	t6,254
9d00650c:	01cb5823 	subu	t3,t6,t3
9d006510:	00073842 	srl	a3,a3,0x1
9d006514:	000a4402 	srl	t0,t2,0x10
9d006518:	010001f4 	teq	t0,zero,0x7
9d00651c:	00e8001b 	divu	zero,a3,t0
9d006520:	00002812 	mflo	a1
9d006524:	00004810 	mfhi	t1
9d006528:	3146ffff 	andi	a2,t2,0xffff
9d00652c:	00c50019 	multu	a2,a1
9d006530:	00003812 	mflo	a3
9d006534:	00094c00 	sll	t1,t1,0x10
9d006538:	0127702b 	sltu	t6,t1,a3
9d00653c:	11c00006 	beqz	t6,9d006558 <i23>
9d006540:	01274823 	subu	t1,t1,a3

9d006544 <b24>:
9d006544:	24a5ffff 	addiu	a1,a1,-1
9d006548:	012a4821 	addu	t1,t1,t2
9d00654c:	012a082b 	sltu	at,t1,t2
9d006550:	1020fffc 	beqz	at,9d006544 <b24>
9d006554:	00000000 	nop

9d006558 <i23>:
9d006558:	010001f4 	teq	t0,zero,0x7
9d00655c:	0128001b 	divu	zero,t1,t0
9d006560:	00004012 	mflo	t0
9d006564:	00055400 	sll	t2,a1,0x10
9d006568:	01485021 	addu	t2,t2,t0

9d00656c <e20>:
9d00656c:	19400003 	blez	t2,9d00657c <i25>
9d006570:	00000000 	nop
9d006574:	000a5040 	sll	t2,t2,0x1
9d006578:	256bffff 	addiu	t3,t3,-1

9d00657c <i25>:
9d00657c:	000a5040 	sll	t2,t2,0x1
9d006580:	000a5242 	srl	t2,t2,0x9
9d006584:	000b75c0 	sll	t6,t3,0x17
9d006588:	014e5025 	or	t2,t2,t6
9d00658c:	008a1025 	or	v0,a0,t2

9d006590 <D999>:
9d006590:	8fbf0000 	lw	ra,0(sp)
9d006594:	03e00008 	jr	ra
9d006598:	27bd0010 	addiu	sp,sp,16
9d00659c:	00000000 	nop

Disassembly of section .text.powf:

9d0065a0 <powf>:
9d0065a0:	27bdffd8 	addiu	sp,sp,-40
9d0065a4:	afbf0024 	sw	ra,36(sp)
9d0065a8:	afb20020 	sw	s2,32(sp)
9d0065ac:	afb1001c 	sw	s1,28(sp)
9d0065b0:	afb00018 	sw	s0,24(sp)
9d0065b4:	3c11a000 	lui	s1,0xa000
9d0065b8:	8e220350 	lw	v0,848(s1)
9d0065bc:	00808021 	move	s0,a0
9d0065c0:	30420001 	andi	v0,v0,0x1
9d0065c4:	00a09021 	move	s2,a1
9d0065c8:	3c039d00 	lui	v1,0x9d00
9d0065cc:	8c637b3c 	lw	v1,31548(v1)
9d0065d0:	10400015 	beqz	v0,9d006628 <powf+0x88>
9d0065d4:	afa30010 	sw	v1,16(sp)
9d0065d8:	0f401bf0 	jal	9d006fc0 <.LFE0>
9d0065dc:	00000000 	nop
9d0065e0:	00402021 	move	a0,v0
9d0065e4:	0f401e86 	jal	9d007a18 <isinfl>
9d0065e8:	00602821 	move	a1,v1
9d0065ec:	14400005 	bnez	v0,9d006604 <powf+0x64>
9d0065f0:	02002021 	move	a0,s0
9d0065f4:	0f401c46 	jal	9d007118 <__eqsf2>
9d0065f8:	00002821 	move	a1,zero
9d0065fc:	04400023 	bltz	v0,9d00668c <powf+0xec>
9d006600:	02002021 	move	a0,s0
9d006604:	0f401c46 	jal	9d007118 <__eqsf2>
9d006608:	00002821 	move	a1,zero
9d00660c:	14400007 	bnez	v0,9d00662c <powf+0x8c>
9d006610:	02002021 	move	a0,s0
9d006614:	02402021 	move	a0,s2
9d006618:	0f401c46 	jal	9d007118 <__eqsf2>
9d00661c:	00002821 	move	a1,zero
9d006620:	1840002a 	blez	v0,9d0066cc <powf+0x12c>
9d006624:	00002021 	move	a0,zero
9d006628:	02002021 	move	a0,s0
9d00662c:	0f4013f7 	jal	9d004fdc <__mchp_powf>
9d006630:	02402821 	move	a1,s2
9d006634:	00408021 	move	s0,v0
9d006638:	8e220350 	lw	v0,848(s1)
9d00663c:	30420001 	andi	v0,v0,0x1
9d006640:	1040000c 	beqz	v0,9d006674 <powf+0xd4>
9d006644:	02001021 	move	v0,s0
9d006648:	0f401bf0 	jal	9d006fc0 <.LFE0>
9d00664c:	02002021 	move	a0,s0
9d006650:	00402021 	move	a0,v0
9d006654:	0f401e86 	jal	9d007a18 <isinfl>
9d006658:	00602821 	move	a1,v1
9d00665c:	10400005 	beqz	v0,9d006674 <powf+0xd4>
9d006660:	02001021 	move	v0,s0
9d006664:	24030022 	li	v1,34
9d006668:	3c02a000 	lui	v0,0xa000
9d00666c:	ac43000c 	sw	v1,12(v0)
9d006670:	02001021 	move	v0,s0
9d006674:	8fbf0024 	lw	ra,36(sp)
9d006678:	8fb20020 	lw	s2,32(sp)
9d00667c:	8fb1001c 	lw	s1,28(sp)
9d006680:	8fb00018 	lw	s0,24(sp)
9d006684:	03e00008 	jr	ra
9d006688:	27bd0028 	addiu	sp,sp,40
9d00668c:	0f401bf0 	jal	9d006fc0 <.LFE0>
9d006690:	02402021 	move	a0,s2
9d006694:	00402021 	move	a0,v0
9d006698:	0f401e86 	jal	9d007a18 <isinfl>
9d00669c:	00602821 	move	a1,v1
9d0066a0:	1440ffd8 	bnez	v0,9d006604 <powf+0x64>
9d0066a4:	02002021 	move	a0,s0
9d0066a8:	27a50010 	addiu	a1,sp,16
9d0066ac:	0f401b86 	jal	9d006e18 <fpmodf>
9d0066b0:	02402021 	move	a0,s2
9d0066b4:	00402021 	move	a0,v0
9d0066b8:	0f401c46 	jal	9d007118 <__eqsf2>
9d0066bc:	00002821 	move	a1,zero
9d0066c0:	1040ffd0 	beqz	v0,9d006604 <powf+0x64>
9d0066c4:	02002021 	move	a0,s0
9d0066c8:	00002021 	move	a0,zero
9d0066cc:	3c05fff8 	lui	a1,0xfff8
9d0066d0:	24030021 	li	v1,33
9d0066d4:	3c02a000 	lui	v0,0xa000
9d0066d8:	0f401a97 	jal	9d006a5c <__truncdfsf2>
9d0066dc:	ac43000c 	sw	v1,12(v0)
9d0066e0:	0b40199c 	j	9d006670 <powf+0xd0>
9d0066e4:	00408021 	move	s0,v0

Disassembly of section .text._outcnvrt:

9d0066e8 <_outcnvrt>:
9d0066e8:	27bdffd8 	addiu	sp,sp,-40
9d0066ec:	afbf0024 	sw	ra,36(sp)
9d0066f0:	afb40020 	sw	s4,32(sp)
9d0066f4:	afb3001c 	sw	s3,28(sp)
9d0066f8:	afb20018 	sw	s2,24(sp)
9d0066fc:	afb10014 	sw	s1,20(sp)
9d006700:	afb00010 	sw	s0,16(sp)
9d006704:	97a20038 	lhu	v0,56(sp)
9d006708:	00809821 	move	s3,a0
9d00670c:	00a0a021 	move	s4,a1
9d006710:	30420008 	andi	v0,v0,0x8
9d006714:	00c08021 	move	s0,a2
9d006718:	10400014 	beqz	v0,9d00676c <_outcnvrt+0x84>
9d00671c:	00e08821 	move	s1,a3
9d006720:	00a02021 	move	a0,a1
9d006724:	00c02821 	move	a1,a2
9d006728:	0f401d7a 	jal	9d0075e8 <__sputn>
9d00672c:	02603021 	move	a2,s3
9d006730:	2403ffff 	li	v1,-1
9d006734:	10430003 	beq	v0,v1,9d006744 <_outcnvrt+0x5c>
9d006738:	0211902a 	slt	s2,s0,s1
9d00673c:	1640001c 	bnez	s2,9d0067b0 <_outcnvrt+0xc8>
9d006740:	02602021 	move	a0,s3
9d006744:	02201021 	move	v0,s1
9d006748:	0212100a 	movz	v0,s0,s2
9d00674c:	8fbf0024 	lw	ra,36(sp)
9d006750:	8fb40020 	lw	s4,32(sp)
9d006754:	8fb3001c 	lw	s3,28(sp)
9d006758:	8fb20018 	lw	s2,24(sp)
9d00675c:	8fb10014 	lw	s1,20(sp)
9d006760:	8fb00010 	lw	s0,16(sp)
9d006764:	03e00008 	jr	ra
9d006768:	27bd0028 	addiu	sp,sp,40
9d00676c:	00c7902a 	slt	s2,a2,a3
9d006770:	1640001d 	bnez	s2,9d0067e8 <_outcnvrt+0x100>
9d006774:	00e62823 	subu	a1,a3,a2
9d006778:	02802021 	move	a0,s4
9d00677c:	02002821 	move	a1,s0
9d006780:	0f401d7a 	jal	9d0075e8 <__sputn>
9d006784:	02603021 	move	a2,s3
9d006788:	02201021 	move	v0,s1
9d00678c:	0212100a 	movz	v0,s0,s2
9d006790:	8fbf0024 	lw	ra,36(sp)
9d006794:	8fb40020 	lw	s4,32(sp)
9d006798:	8fb3001c 	lw	s3,28(sp)
9d00679c:	8fb20018 	lw	s2,24(sp)
9d0067a0:	8fb10014 	lw	s1,20(sp)
9d0067a4:	8fb00010 	lw	s0,16(sp)
9d0067a8:	03e00008 	jr	ra
9d0067ac:	27bd0028 	addiu	sp,sp,40
9d0067b0:	02302823 	subu	a1,s1,s0
9d0067b4:	3c069d00 	lui	a2,0x9d00
9d0067b8:	0f401c6d 	jal	9d0071b4 <repl>
9d0067bc:	24c67790 	addiu	a2,a2,30608
9d0067c0:	02201021 	move	v0,s1
9d0067c4:	0212100a 	movz	v0,s0,s2
9d0067c8:	8fbf0024 	lw	ra,36(sp)
9d0067cc:	8fb40020 	lw	s4,32(sp)
9d0067d0:	8fb3001c 	lw	s3,28(sp)
9d0067d4:	8fb20018 	lw	s2,24(sp)
9d0067d8:	8fb10014 	lw	s1,20(sp)
9d0067dc:	8fb00010 	lw	s0,16(sp)
9d0067e0:	03e00008 	jr	ra
9d0067e4:	27bd0028 	addiu	sp,sp,40
9d0067e8:	3c069d00 	lui	a2,0x9d00
9d0067ec:	0f401c6d 	jal	9d0071b4 <repl>
9d0067f0:	24c67790 	addiu	a2,a2,30608
9d0067f4:	2403ffff 	li	v1,-1
9d0067f8:	1443ffdf 	bne	v0,v1,9d006778 <_outcnvrt+0x90>
9d0067fc:	02201021 	move	v0,s1
9d006800:	0212100a 	movz	v0,s0,s2
9d006804:	8fbf0024 	lw	ra,36(sp)
9d006808:	8fb40020 	lw	s4,32(sp)
9d00680c:	8fb3001c 	lw	s3,28(sp)
9d006810:	8fb20018 	lw	s2,24(sp)
9d006814:	8fb10014 	lw	s1,20(sp)
9d006818:	8fb00010 	lw	s0,16(sp)
9d00681c:	03e00008 	jr	ra
9d006820:	27bd0028 	addiu	sp,sp,40

Disassembly of section .text.dpcmp:

9d006824 <__eqdf2>:
9d006824:	2409fffe 00055040 00075840 01645825     ...$@P..@X..%Xd.
9d006834:	01665825 014b5025 15400003 00000000     %Xf.%PK...@.....
9d006844:	1000003c 24020000                       <......$

9d00684c <i56>:
9d00684c:	10800002 	beqz	a0,9d006858 <i57>
9d006850:	00054040 	sll	t0,a1,0x1
9d006854:	25080001 	addiu	t0,t0,1

9d006858 <i57>:
9d006858:	3c01ffe0 	lui	at,0xffe0
9d00685c:	34210001 	ori	at,at,0x1
9d006860:	0101082b 	sltu	at,t0,at
9d006864:	10200037 	beqz	at,9d006944 <Lnan>
9d006868:	00000000 	nop
9d00686c:	10c00002 	beqz	a2,9d006878 <i58>
9d006870:	00074040 	sll	t0,a3,0x1
9d006874:	25080001 	addiu	t0,t0,1

9d006878 <i58>:
9d006878:	3c01ffe0 	lui	at,0xffe0
9d00687c:	34210001 	ori	at,at,0x1
9d006880:	0101082b 	sltu	at,t0,at
9d006884:	1020002f 	beqz	at,9d006944 <Lnan>
9d006888:	00000000 	nop
9d00688c:	04a10016 	bgez	a1,9d0068e8 <i59>
9d006890:	00000000 	nop
9d006894:	04e00003 	bltz	a3,9d0068a4 <i60>
9d006898:	00000000 	nop
9d00689c:	10000026 	b	9d006938 <L999>
9d0068a0:	2402ffff 	li	v0,-1

9d0068a4 <i60>:
9d0068a4:	0086502b 	sltu	t2,a0,a2
9d0068a8:	00862023 	subu	a0,a0,a2
9d0068ac:	00aa582b 	sltu	t3,a1,t2
9d0068b0:	00aa2823 	subu	a1,a1,t2
9d0068b4:	00a7502b 	sltu	t2,a1,a3
9d0068b8:	014b5025 	or	t2,t2,t3
9d0068bc:	11400003 	beqz	t2,9d0068cc <i61>
9d0068c0:	00a72823 	subu	a1,a1,a3
9d0068c4:	1000001c 	b	9d006938 <L999>
9d0068c8:	24020001 	li	v0,1

9d0068cc <i61>:
9d0068cc:	00a45025 	or	t2,a1,a0
9d0068d0:	11400003 	beqz	t2,9d0068e0 <i62>
9d0068d4:	00000000 	nop
9d0068d8:	10000017 	b	9d006938 <L999>
9d0068dc:	2402ffff 	li	v0,-1

9d0068e0 <i62>:
9d0068e0:	10000015 	b	9d006938 <L999>
9d0068e4:	24020000 	li	v0,0

9d0068e8 <i59>:
9d0068e8:	04e10003 	bgez	a3,9d0068f8 <i63>
9d0068ec:	00000000 	nop
9d0068f0:	10000011 	b	9d006938 <L999>
9d0068f4:	24020001 	li	v0,1

9d0068f8 <i63>:
9d0068f8:	0086502b 	sltu	t2,a0,a2
9d0068fc:	00862023 	subu	a0,a0,a2
9d006900:	00aa582b 	sltu	t3,a1,t2
9d006904:	00aa2823 	subu	a1,a1,t2
9d006908:	00a7502b 	sltu	t2,a1,a3
9d00690c:	014b5025 	or	t2,t2,t3
9d006910:	11400003 	beqz	t2,9d006920 <i64>
9d006914:	00a72823 	subu	a1,a1,a3
9d006918:	10000007 	b	9d006938 <L999>
9d00691c:	2402ffff 	li	v0,-1

9d006920 <i64>:
9d006920:	00a45025 	or	t2,a1,a0
9d006924:	11400003 	beqz	t2,9d006934 <i65>
9d006928:	00000000 	nop
9d00692c:	10000002 	b	9d006938 <L999>
9d006930:	24020001 	li	v0,1

9d006934 <i65>:
9d006934:	24020000 	li	v0,0

9d006938 <L999>:
9d006938:	03e00008 	jr	ra
9d00693c:	00000000 	nop
9d006940:	00000000 	nop

9d006944 <Lnan>:
9d006944:	1000fffc 	b	9d006938 <L999>
9d006948:	00091025 	or	v0,zero,t1
9d00694c:	00000000 	nop

Disassembly of section .text.libm:

9d006950 <fpreduct>:
9d006950:	000435c2 30c600ff 00042a00 3c018000     .5.....0.*.....<
9d006960:	00a12825 24070000 24c8ff82 05000032     %(.....$...$2...
9d006970:	00000000 29010020 10200034 00000000     .... ..)4. .....
9d006980:	00052882 24090000 3c0b10b4 356b611a     .(.....$...<.ak5
9d006990:	3c0a6487 354aed51                       .d.<Q.J5

9d006998 <b1>:
9d006998:	00073840 	sll	a3,a3,0x1
9d00699c:	24e70001 	addiu	a3,a3,1
9d0069a0:	0120602a 	slt	t4,t1,zero
9d0069a4:	01294821 	addu	t1,t1,t1
9d0069a8:	00a52821 	addu	a1,a1,a1
9d0069ac:	00ac2821 	addu	a1,a1,t4
9d0069b0:	012b602b 	sltu	t4,t1,t3
9d0069b4:	012b4823 	subu	t1,t1,t3
9d0069b8:	00ac682b 	sltu	t5,a1,t4
9d0069bc:	00ac2823 	subu	a1,a1,t4
9d0069c0:	00aa602b 	sltu	t4,a1,t2
9d0069c4:	018d6025 	or	t4,t4,t5
9d0069c8:	11800006 	beqz	t4,9d0069e4 <i2>
9d0069cc:	00aa2823 	subu	a1,a1,t2
9d0069d0:	24e7ffff 	addiu	a3,a3,-1
9d0069d4:	012b4821 	addu	t1,t1,t3
9d0069d8:	012b602b 	sltu	t4,t1,t3
9d0069dc:	00aa2821 	addu	a1,a1,t2
9d0069e0:	00ac2821 	addu	a1,a1,t4

9d0069e4 <i2>:
9d0069e4:	2508ffff 	addiu	t0,t0,-1
9d0069e8:	0501ffeb 	bgez	t0,9d006998 <b1>
9d0069ec:	00000000 	nop
9d0069f0:	30ec0001 	andi	t4,a3,0x1
9d0069f4:	11800007 	beqz	t4,9d006a14 <i3>
9d0069f8:	00000000 	nop
9d0069fc:	0169602b 	sltu	t4,t3,t1
9d006a00:	01695823 	subu	t3,t3,t1
9d006a04:	014c5023 	subu	t2,t2,t4
9d006a08:	01455023 	subu	t2,t2,a1
9d006a0c:	000b4825 	or	t1,zero,t3
9d006a10:	000a2825 	or	a1,zero,t2

9d006a14 <i3>:
9d006a14:	2406007f 	li	a2,127

9d006a18 <b4>:
9d006a18:	04a00007 	bltz	a1,9d006a38 <Aret>
9d006a1c:	00000000 	nop
9d006a20:	0120602a 	slt	t4,t1,zero
9d006a24:	01294821 	addu	t1,t1,t1
9d006a28:	00a52821 	addu	a1,a1,a1
9d006a2c:	00ac2821 	addu	a1,a1,t4
9d006a30:	1000fff9 	b	9d006a18 <b4>
9d006a34:	24c6ffff 	addiu	a2,a2,-1

9d006a38 <Aret>:
9d006a38:	00051025 	or	v0,zero,a1
9d006a3c:	00061825 	or	v1,zero,a2
9d006a40:	0007c025 	or	t8,zero,a3

9d006a44 <A999>:
9d006a44:	03e00008 	jr	ra
9d006a48:	00000000 	nop

9d006a4c <Anan>:
9d006a4c:	2406ffff 	li	a2,-1
9d006a50:	1000fff9 	b	9d006a38 <Aret>
9d006a54:	3c05ffc0 	lui	a1,0xffc0
9d006a58:	00000000 	nop

Disassembly of section .text.dptofp:

9d006a5c <__truncdfsf2>:
9d006a5c:	00053ac0 00045d42 00eb3825 000432c0     .:..B]..%8...2..
9d006a6c:	3c018000 00e13825 3c018000 00a14824     ...<%8.....<$H..
9d006a7c:	00054040 00084542 2508fc80 250bffff     @@..BE.....%...%
9d006a8c:	2d6100fe 10200012 00000000              ..a-.. .....

9d006a98 <Hlab1>:
9d006a98:	10c00002 	beqz	a2,9d006aa4 <i45>
9d006a9c:	00000000 	nop
9d006aa0:	34e70001 	ori	a3,a3,0x1

9d006aa4 <i45>:
9d006aa4:	24e70080 	addiu	a3,a3,128
9d006aa8:	2ceb0080 	sltiu	t3,a3,128
9d006aac:	010b4021 	addu	t0,t0,t3
9d006ab0:	00075a02 	srl	t3,a3,0x8
9d006ab4:	316b0001 	andi	t3,t3,0x1
9d006ab8:	00eb3823 	subu	a3,a3,t3
9d006abc:	00073840 	sll	a3,a3,0x1
9d006ac0:	00073a42 	srl	a3,a3,0x9
9d006ac4:	00085dc0 	sll	t3,t0,0x17
9d006ac8:	00eb3825 	or	a3,a3,t3
9d006acc:	00e91025 	or	v0,a3,t1

9d006ad0 <H999>:
9d006ad0:	03e00008 	jr	ra
9d006ad4:	00000000 	nop
9d006ad8:	00000000 	nop

9d006adc <Hspec>:
9d006adc:	2401047f 	li	at,1151
9d006ae0:	15010007 	bne	t0,at,9d006b00 <i46>
9d006ae4:	00000000 	nop
9d006ae8:	00075840 	sll	t3,a3,0x1
9d006aec:	01665825 	or	t3,t3,a2
9d006af0:	11600003 	beqz	t3,9d006b00 <i46>
9d006af4:	00000000 	nop
9d006af8:	1000fff5 	b	9d006ad0 <H999>
9d006afc:	3c02ffc0 	lui	v0,0xffc0

9d006b00 <i46>:
9d006b00:	290100ff 	slti	at,t0,255
9d006b04:	14200004 	bnez	at,9d006b18 <i48>
9d006b08:	00000000 	nop
9d006b0c:	3c017f80 	lui	at,0x7f80
9d006b10:	1000ffef 	b	9d006ad0 <H999>
9d006b14:	01211025 	or	v0,t1,at

9d006b18 <i48>:
9d006b18:	240a0001 	li	t2,1
9d006b1c:	01485023 	subu	t2,t2,t0
9d006b20:	2d410020 	sltiu	at,t2,32
9d006b24:	14200003 	bnez	at,9d006b34 <i49>
9d006b28:	00000000 	nop
9d006b2c:	1000ffe8 	b	9d006ad0 <H999>
9d006b30:	00091025 	or	v0,zero,t1

9d006b34 <i49>:
9d006b34:	240c0020 	li	t4,32
9d006b38:	018a6023 	subu	t4,t4,t2
9d006b3c:	01875804 	sllv	t3,a3,t4
9d006b40:	00cb3025 	or	a2,a2,t3
9d006b44:	01473806 	srlv	a3,a3,t2
9d006b48:	24080000 	li	t0,0
9d006b4c:	3c018000 	lui	at,0x8000
9d006b50:	1000ffd1 	b	9d006a98 <Hlab1>
9d006b54:	00e13825 	or	a3,a3,at
9d006b58:	00000000 	nop

Disassembly of section .text._flsbuf_simple:

9d006b5c <_flsbuf_simple>:
9d006b5c:	27bdffd8 	addiu	sp,sp,-40
9d006b60:	afbf0024 	sw	ra,36(sp)
9d006b64:	afb10020 	sw	s1,32(sp)
9d006b68:	afb0001c 	sw	s0,28(sp)
9d006b6c:	00a08021 	move	s0,a1
9d006b70:	8ca2000c 	lw	v0,12(a1)
9d006b74:	1040002d 	beqz	v0,9d006c2c <_flsbuf_simple+0xd0>
9d006b78:	00808821 	move	s1,a0
9d006b7c:	8ca20000 	lw	v0,0(a1)
9d006b80:	24420001 	addiu	v0,v0,1
9d006b84:	2403ffff 	li	v1,-1
9d006b88:	1043001e 	beq	v0,v1,9d006c04 <_flsbuf_simple+0xa8>
9d006b8c:	aca20000 	sw	v0,0(a1)
9d006b90:	0f401cff 	jal	9d0073fc <_fflush_simple>
9d006b94:	02002021 	move	a0,s0
9d006b98:	8e040000 	lw	a0,0(s0)
9d006b9c:	8e020004 	lw	v0,4(s0)
9d006ba0:	2484ffff 	addiu	a0,a0,-1
9d006ba4:	24430001 	addiu	v1,v0,1
9d006ba8:	ae040000 	sw	a0,0(s0)
9d006bac:	ae030004 	sw	v1,4(s0)
9d006bb0:	a0510000 	sb	s1,0(v0)
9d006bb4:	2402000a 	li	v0,10
9d006bb8:	52220007 	beql	s1,v0,9d006bd8 <_flsbuf_simple+0x7c>
9d006bbc:	96020010 	lhu	v0,16(s0)
9d006bc0:	02201021 	move	v0,s1
9d006bc4:	8fbf0024 	lw	ra,36(sp)
9d006bc8:	8fb10020 	lw	s1,32(sp)
9d006bcc:	8fb0001c 	lw	s0,28(sp)
9d006bd0:	03e00008 	jr	ra
9d006bd4:	27bd0028 	addiu	sp,sp,40
9d006bd8:	30420008 	andi	v0,v0,0x8
9d006bdc:	1040fff9 	beqz	v0,9d006bc4 <_flsbuf_simple+0x68>
9d006be0:	02201021 	move	v0,s1
9d006be4:	0f401cff 	jal	9d0073fc <_fflush_simple>
9d006be8:	02002021 	move	a0,s0
9d006bec:	02201021 	move	v0,s1
9d006bf0:	8fbf0024 	lw	ra,36(sp)
9d006bf4:	8fb10020 	lw	s1,32(sp)
9d006bf8:	8fb0001c 	lw	s0,28(sp)
9d006bfc:	03e00008 	jr	ra
9d006c00:	27bd0028 	addiu	sp,sp,40
9d006c04:	8ca20008 	lw	v0,8(a1)
9d006c08:	1440ffe1 	bnez	v0,9d006b90 <_flsbuf_simple+0x34>
9d006c0c:	00000000 	nop
9d006c10:	94a20010 	lhu	v0,16(a1)
9d006c14:	aca00004 	sw	zero,4(a1)
9d006c18:	aca0000c 	sw	zero,12(a1)
9d006c1c:	34420010 	ori	v0,v0,0x10
9d006c20:	aca00000 	sw	zero,0(a1)
9d006c24:	0b401ae4 	j	9d006b90 <_flsbuf_simple+0x34>
9d006c28:	a4a20010 	sh	v0,16(a1)
9d006c2c:	27a40010 	addiu	a0,sp,16
9d006c30:	24050001 	li	a1,1
9d006c34:	0f401def 	jal	9d0077bc <_mon_write>
9d006c38:	a3b10010 	sb	s1,16(sp)
9d006c3c:	ae000000 	sw	zero,0(s0)
9d006c40:	02201021 	move	v0,s1
9d006c44:	8fbf0024 	lw	ra,36(sp)
9d006c48:	8fb10020 	lw	s1,32(sp)
9d006c4c:	8fb0001c 	lw	s0,28(sp)
9d006c50:	03e00008 	jr	ra
9d006c54:	27bd0028 	addiu	sp,sp,40

Disassembly of section .text._mon_getc:

9d006c58 <_mon_getc>:
9d006c58:	27bdffe8 	addiu	sp,sp,-24
9d006c5c:	afbf0014 	sw	ra,20(sp)
9d006c60:	3c02a000 	lui	v0,0xa000
9d006c64:	8c420004 	lw	v0,4(v0)
9d006c68:	1440000a 	bnez	v0,9d006c94 <_mon_getc+0x3c>
9d006c6c:	24030002 	li	v1,2
9d006c70:	3c020000 	lui	v0,0x0
9d006c74:	24420000 	addiu	v0,v0,0
9d006c78:	10400029 	beqz	v0,9d006d20 <_mon_getc+0xc8>
9d006c7c:	3c020000 	lui	v0,0x0
9d006c80:	0c000000 	jal	90000000 <_bmxdkpba_address+0x8ffe0000>
9d006c84:	00000000 	nop
9d006c88:	8fbf0014 	lw	ra,20(sp)
9d006c8c:	03e00008 	jr	ra
9d006c90:	27bd0018 	addiu	sp,sp,24
9d006c94:	1043001c 	beq	v0,v1,9d006d08 <_mon_getc+0xb0>
9d006c98:	3c02bf80 	lui	v0,0xbf80
9d006c9c:	3c02bf80 	lui	v0,0xbf80
9d006ca0:	8c426000 	lw	v0,24576(v0)
9d006ca4:	3c05bf80 	lui	a1,0xbf80
9d006ca8:	24a56030 	addiu	a1,a1,24624
9d006cac:	3c04bf80 	lui	a0,0xbf80
9d006cb0:	24846010 	addiu	a0,a0,24592
9d006cb4:	30428000 	andi	v0,v0,0x8000
9d006cb8:	14400003 	bnez	v0,9d006cc8 <_mon_getc+0x70>
9d006cbc:	34038000 	li	v1,0x8000
9d006cc0:	3c02bf80 	lui	v0,0xbf80
9d006cc4:	ac436008 	sw	v1,24584(v0)
9d006cc8:	8c820000 	lw	v0,0(a0)
9d006ccc:	30420001 	andi	v0,v0,0x1
9d006cd0:	14400009 	bnez	v0,9d006cf8 <_mon_getc+0xa0>
9d006cd4:	240200a0 	li	v0,160
9d006cd8:	0b401b3a 	j	9d006ce8 <_mon_getc+0x90>
9d006cdc:	00000000 	nop
9d006ce0:	10400005 	beqz	v0,9d006cf8 <_mon_getc+0xa0>
9d006ce4:	00000000 	nop
9d006ce8:	8c830000 	lw	v1,0(a0)
9d006cec:	30630001 	andi	v1,v1,0x1
9d006cf0:	1060fffb 	beqz	v1,9d006ce0 <_mon_getc+0x88>
9d006cf4:	2442ffff 	addiu	v0,v0,-1
9d006cf8:	8ca20000 	lw	v0,0(a1)
9d006cfc:	8fbf0014 	lw	ra,20(sp)
9d006d00:	03e00008 	jr	ra
9d006d04:	27bd0018 	addiu	sp,sp,24
9d006d08:	8c426800 	lw	v0,26624(v0)
9d006d0c:	3c05bf80 	lui	a1,0xbf80
9d006d10:	24a56830 	addiu	a1,a1,26672
9d006d14:	3c04bf80 	lui	a0,0xbf80
9d006d18:	0b401b2d 	j	9d006cb4 <_mon_getc+0x5c>
9d006d1c:	24846810 	addiu	a0,a0,26640
9d006d20:	24420000 	addiu	v0,v0,0
9d006d24:	5040ffde 	beqzl	v0,9d006ca0 <_mon_getc+0x48>
9d006d28:	3c02bf80 	lui	v0,0xbf80
9d006d2c:	0c000000 	jal	90000000 <_bmxdkpba_address+0x8ffe0000>
9d006d30:	00000000 	nop
9d006d34:	0b401b23 	j	9d006c8c <_mon_getc+0x34>
9d006d38:	8fbf0014 	lw	ra,20(sp)

Disassembly of section .text.general_exception:

9d006d3c <_general_exception_context>:
9d006d3c:	27bdffa8 	addiu	sp,sp,-88
9d006d40:	afa10004 	sw	at,4(sp)
9d006d44:	afa20008 	sw	v0,8(sp)
9d006d48:	afa3000c 	sw	v1,12(sp)
9d006d4c:	afa40010 	sw	a0,16(sp)
9d006d50:	afa50014 	sw	a1,20(sp)
9d006d54:	afa60018 	sw	a2,24(sp)
9d006d58:	afa7001c 	sw	a3,28(sp)
9d006d5c:	afa80020 	sw	t0,32(sp)
9d006d60:	afa90024 	sw	t1,36(sp)
9d006d64:	afaa0028 	sw	t2,40(sp)
9d006d68:	afab002c 	sw	t3,44(sp)
9d006d6c:	afac0030 	sw	t4,48(sp)
9d006d70:	afad0034 	sw	t5,52(sp)
9d006d74:	afae0038 	sw	t6,56(sp)
9d006d78:	afaf003c 	sw	t7,60(sp)
9d006d7c:	afb80040 	sw	t8,64(sp)
9d006d80:	afb90044 	sw	t9,68(sp)
9d006d84:	afbf0048 	sw	ra,72(sp)
9d006d88:	00004012 	mflo	t0
9d006d8c:	afa8004c 	sw	t0,76(sp)
9d006d90:	00004010 	mfhi	t0
9d006d94:	afa80050 	sw	t0,80(sp)
9d006d98:	3c1a9d00 	lui	k0,0x9d00
9d006d9c:	275a7850 	addiu	k0,k0,30800
9d006da0:	00000000 	nop
9d006da4:	40046800 	mfc0	a0,c0_cause
9d006da8:	40056000 	mfc0	a1,c0_status
9d006dac:	0340f809 	jalr	k0
9d006db0:	00000000 	nop
9d006db4:	8fa80050 	lw	t0,80(sp)
9d006db8:	01000011 	mthi	t0
9d006dbc:	8fa8004c 	lw	t0,76(sp)
9d006dc0:	01000013 	mtlo	t0
9d006dc4:	8fa10004 	lw	at,4(sp)
9d006dc8:	8fa20008 	lw	v0,8(sp)
9d006dcc:	8fa3000c 	lw	v1,12(sp)
9d006dd0:	8fa40010 	lw	a0,16(sp)
9d006dd4:	8fa50014 	lw	a1,20(sp)
9d006dd8:	8fa60018 	lw	a2,24(sp)
9d006ddc:	8fa7001c 	lw	a3,28(sp)
9d006de0:	8fa80020 	lw	t0,32(sp)
9d006de4:	8fa90024 	lw	t1,36(sp)
9d006de8:	8faa0028 	lw	t2,40(sp)
9d006dec:	8fab002c 	lw	t3,44(sp)
9d006df0:	8fac0030 	lw	t4,48(sp)
9d006df4:	8fad0034 	lw	t5,52(sp)
9d006df8:	8fae0038 	lw	t6,56(sp)
9d006dfc:	8faf003c 	lw	t7,60(sp)
9d006e00:	8fb80040 	lw	t8,64(sp)
9d006e04:	8fb90044 	lw	t9,68(sp)
9d006e08:	8fbf0048 	lw	ra,72(sp)
9d006e0c:	27bd0058 	addiu	sp,sp,88
9d006e10:	000000c0 	ehb
9d006e14:	42000018 	eret

Disassembly of section .text.libm:

9d006e18 <fpmodf>:
9d006e18:	00043dc2 30e700ff 3c088000 00043200     .=.....0...<.2..
9d006e28:	00c83025 01044024 240100ff 10e10028     %0..$@.....$(...
9d006e38:	00000000 00064825 00075025 00085825     ....%H..%P..%X..
9d006e48:	240c009e 01876023 19800006 00000000     ...$#`..........
9d006e58:	29810020 1020001c 00000000 01894806      ..).. ......H..
9d006e68:	01894804                                .H..

9d006e6c <Dlab3>:
9d006e6c:	00096040 	sll	t4,t1,0x1
9d006e70:	000c6242 	srl	t4,t4,0x9
9d006e74:	000a6dc0 	sll	t5,t2,0x17
9d006e78:	018d6025 	or	t4,t4,t5
9d006e7c:	018b6825 	or	t5,t4,t3
9d006e80:	acad0000 	sw	t5,0(a1)
9d006e84:	00ea6023 	subu	t4,a3,t2
9d006e88:	2d810020 	sltiu	at,t4,32
9d006e8c:	14200002 	bnez	at,9d006e98 <L2>
9d006e90:	00000000 	nop
9d006e94:	34090000 	li	t1,0x0

9d006e98 <L2>:
9d006e98:	01894806 	srlv	t1,t1,t4
9d006e9c:	00c93023 	subu	a2,a2,t1
9d006ea0:	10c00008 	beqz	a2,9d006ec4 <Dret2>
9d006ea4:	00000000 	nop
9d006ea8:	70cc6020 	clz	t4,a2
9d006eac:	00ec3823 	subu	a3,a3,t4
9d006eb0:	01863004 	sllv	a2,a2,t4

9d006eb4 <Dret>:
9d006eb4:	00063040 	sll	a2,a2,0x1
9d006eb8:	00063242 	srl	a2,a2,0x9
9d006ebc:	00076dc0 	sll	t5,a3,0x17
9d006ec0:	00cd3025 	or	a2,a2,t5

9d006ec4 <Dret2>:
9d006ec4:	00c81025 	or	v0,a2,t0

9d006ec8 <D999>:
9d006ec8:	03e00008 	jr	ra
9d006ecc:	00000000 	nop

9d006ed0 <Dzer>:
9d006ed0:	1000fff8 	b	9d006eb4 <Dret>
9d006ed4:	aca80000 	sw	t0,0(a1)

9d006ed8 <Dinfnan>:
9d006ed8:	3c04ffc0 	lui	a0,0xffc0
9d006edc:	aca40000 	sw	a0,0(a1)
9d006ee0:	1000fff9 	b	9d006ec8 <D999>
9d006ee4:	00041025 	or	v0,zero,a0
9d006ee8:	00000000 	nop

Disassembly of section .text._mon_putc:

9d006eec <_mon_putc>:
9d006eec:	27bdffe8 	addiu	sp,sp,-24
9d006ef0:	afbf0014 	sw	ra,20(sp)
9d006ef4:	3c02a000 	lui	v0,0xa000
9d006ef8:	8c420004 	lw	v0,4(v0)
9d006efc:	1440000a 	bnez	v0,9d006f28 <_mon_putc+0x3c>
9d006f00:	7c042420 	seb	a0,a0
9d006f04:	3c020000 	lui	v0,0x0
9d006f08:	24420000 	addiu	v0,v0,0
9d006f0c:	10400025 	beqz	v0,9d006fa4 <_mon_putc+0xb8>
9d006f10:	3c020000 	lui	v0,0x0
9d006f14:	0c000000 	jal	90000000 <_bmxdkpba_address+0x8ffe0000>
9d006f18:	00000000 	nop
9d006f1c:	8fbf0014 	lw	ra,20(sp)
9d006f20:	03e00008 	jr	ra
9d006f24:	27bd0018 	addiu	sp,sp,24
9d006f28:	24030001 	li	v1,1
9d006f2c:	10430015 	beq	v0,v1,9d006f84 <_mon_putc+0x98>
9d006f30:	3c05bf80 	lui	a1,0xbf80
9d006f34:	3c05bf80 	lui	a1,0xbf80
9d006f38:	24a56820 	addiu	a1,a1,26656
9d006f3c:	3c02bf80 	lui	v0,0xbf80
9d006f40:	24426818 	addiu	v0,v0,26648
9d006f44:	3c06bf80 	lui	a2,0xbf80
9d006f48:	24c66808 	addiu	a2,a2,26632
9d006f4c:	3c03bf80 	lui	v1,0xbf80
9d006f50:	24636810 	addiu	v1,v1,26640
9d006f54:	34078000 	li	a3,0x8000
9d006f58:	acc70000 	sw	a3,0(a2)
9d006f5c:	24060400 	li	a2,1024
9d006f60:	ac460000 	sw	a2,0(v0)
9d006f64:	8c620000 	lw	v0,0(v1)
9d006f68:	30420100 	andi	v0,v0,0x100
9d006f6c:	1040fffd 	beqz	v0,9d006f64 <_mon_putc+0x78>
9d006f70:	00000000 	nop
9d006f74:	aca40000 	sw	a0,0(a1)
9d006f78:	8fbf0014 	lw	ra,20(sp)
9d006f7c:	03e00008 	jr	ra
9d006f80:	27bd0018 	addiu	sp,sp,24
9d006f84:	24a56020 	addiu	a1,a1,24608
9d006f88:	3c02bf80 	lui	v0,0xbf80
9d006f8c:	24426018 	addiu	v0,v0,24600
9d006f90:	3c06bf80 	lui	a2,0xbf80
9d006f94:	24c66008 	addiu	a2,a2,24584
9d006f98:	3c03bf80 	lui	v1,0xbf80
9d006f9c:	0b401bd5 	j	9d006f54 <_mon_putc+0x68>
9d006fa0:	24636010 	addiu	v1,v1,24592
9d006fa4:	24420000 	addiu	v0,v0,0
9d006fa8:	1040ffe3 	beqz	v0,9d006f38 <_mon_putc+0x4c>
9d006fac:	3c05bf80 	lui	a1,0xbf80
9d006fb0:	0c000000 	jal	90000000 <_bmxdkpba_address+0x8ffe0000>
9d006fb4:	00000000 	nop
9d006fb8:	0b401bc8 	j	9d006f20 <_mon_putc+0x34>
9d006fbc:	8fbf0014 	lw	ra,20(sp)

Disassembly of section .text.fptodp:

9d006fc0 <__extendsfdf2>:
9d006fc0:	00043dc2 30e700ff 3c018000 00813024     .=.....0...<$0..
9d006fd0:	24e9ffff 2d2100fe 1020000d 00000000     ...$..!-.. .....

9d006fe0 <Glab1>:
9d006fe0:	24e70380 	addiu	a3,a3,896
9d006fe4:	00044a40 	sll	t1,a0,0x9
9d006fe8:	00094b02 	srl	t1,t1,0xc
9d006fec:	00c93025 	or	a2,a2,t1
9d006ff0:	00042f40 	sll	a1,a0,0x1d

9d006ff4 <Gret>:
9d006ff4:	00074d00 	sll	t1,a3,0x14
9d006ff8:	00c93025 	or	a2,a2,t1
9d006ffc:	00051025 	or	v0,zero,a1
9d007000:	00061825 	or	v1,zero,a2

9d007004 <G999>:
9d007004:	03e00008 	jr	ra
9d007008:	00000000 	nop
9d00700c:	00000000 	nop

9d007010 <Gspec>:
9d007010:	24050000 	li	a1,0
9d007014:	00842021 	addu	a0,a0,a0
9d007018:	1080fff6 	beqz	a0,9d006ff4 <Gret>
9d00701c:	00000000 	nop
9d007020:	14e00009 	bnez	a3,9d007048 <i42>
9d007024:	00000000 	nop

9d007028 <b43>:
9d007028:	24e7ffff 	addiu	a3,a3,-1
9d00702c:	00842021 	addu	a0,a0,a0
9d007030:	3c010080 	lui	at,0x80
9d007034:	0081082b 	sltu	at,a0,at
9d007038:	1420fffb 	bnez	at,9d007028 <b43>
9d00703c:	00000000 	nop
9d007040:	1000ffe7 	b	9d006fe0 <Glab1>
9d007044:	00000000 	nop

9d007048 <i42>:
9d007048:	240707ff 	li	a3,2047
9d00704c:	3c01ff00 	lui	at,0xff00
9d007050:	34210001 	ori	at,at,0x1
9d007054:	0081082b 	sltu	at,a0,at
9d007058:	1420ffe6 	bnez	at,9d006ff4 <Gret>
9d00705c:	00000000 	nop
9d007060:	1000ffe4 	b	9d006ff4 <Gret>
9d007064:	3c06fff8 	lui	a2,0xfff8
9d007068:	00000000 	nop

Disassembly of section .text.fputc:

9d00706c <fputc>:
9d00706c:	27bdffe0 	addiu	sp,sp,-32
9d007070:	afbf001c 	sw	ra,28(sp)
9d007074:	afb10018 	sw	s1,24(sp)
9d007078:	afb00014 	sw	s0,20(sp)
9d00707c:	00a08021 	move	s0,a1
9d007080:	8ca20018 	lw	v0,24(a1)
9d007084:	00808821 	move	s1,a0
9d007088:	24050001 	li	a1,1
9d00708c:	8c420010 	lw	v0,16(v0)
9d007090:	0040f809 	jalr	v0
9d007094:	02002021 	move	a0,s0
9d007098:	1040000e 	beqz	v0,9d0070d4 <fputc+0x68>
9d00709c:	2402ffff 	li	v0,-1
9d0070a0:	8e020000 	lw	v0,0(s0)
9d0070a4:	2442ffff 	addiu	v0,v0,-1
9d0070a8:	04400011 	bltz	v0,9d0070f0 <fputc+0x84>
9d0070ac:	ae020000 	sw	v0,0(s0)
9d0070b0:	96020010 	lhu	v0,16(s0)
9d0070b4:	30420008 	andi	v0,v0,0x8
9d0070b8:	1440000b 	bnez	v0,9d0070e8 <fputc+0x7c>
9d0070bc:	2402000a 	li	v0,10
9d0070c0:	8e030004 	lw	v1,4(s0)
9d0070c4:	02201021 	move	v0,s1
9d0070c8:	24640001 	addiu	a0,v1,1
9d0070cc:	ae040004 	sw	a0,4(s0)
9d0070d0:	a0710000 	sb	s1,0(v1)
9d0070d4:	8fbf001c 	lw	ra,28(sp)
9d0070d8:	8fb10018 	lw	s1,24(sp)
9d0070dc:	8fb00014 	lw	s0,20(sp)
9d0070e0:	03e00008 	jr	ra
9d0070e4:	27bd0020 	addiu	sp,sp,32
9d0070e8:	5622fff6 	bnel	s1,v0,9d0070c4 <fputc+0x58>
9d0070ec:	8e030004 	lw	v1,4(s0)
9d0070f0:	8e020018 	lw	v0,24(s0)
9d0070f4:	02202021 	move	a0,s1
9d0070f8:	8c420004 	lw	v0,4(v0)
9d0070fc:	0040f809 	jalr	v0
9d007100:	02002821 	move	a1,s0
9d007104:	8fbf001c 	lw	ra,28(sp)
9d007108:	8fb10018 	lw	s1,24(sp)
9d00710c:	8fb00014 	lw	s0,20(sp)
9d007110:	03e00008 	jr	ra
9d007114:	27bd0020 	addiu	sp,sp,32

Disassembly of section .text.fpcmp:

9d007118 <__eqsf2>:
9d007118:	2408fffe 00043040 00053840 00c74825     ...$@0..@8..%H..
9d007128:	1120001b 00000000 3c01ff00 34210001     .. ........<..!4
9d007138:	00c1082b 1020001a 00000000 3c01ff00     +..... ........<
9d007148:	34210001 00e1082b 10200015 00000000     ..!4+..... .....
9d007158:	04810002 00063042 00063023              ....B0..#0..

9d007164 <i48>:
9d007164:	04a10002 	bgez	a1,9d007170 <i49>
9d007168:	00073842 	srl	a3,a3,0x1
9d00716c:	00073823 	negu	a3,a3

9d007170 <i49>:
9d007170:	00c7082a 	slt	at,a2,a3
9d007174:	10200003 	beqz	at,9d007184 <i50>
9d007178:	00000000 	nop
9d00717c:	10000007 	b	9d00719c <J999>
9d007180:	2402ffff 	li	v0,-1

9d007184 <i50>:
9d007184:	00e6082a 	slt	at,a3,a2
9d007188:	10200003 	beqz	at,9d007198 <Jequ>
9d00718c:	00000000 	nop
9d007190:	10000002 	b	9d00719c <J999>
9d007194:	24020001 	li	v0,1

9d007198 <Jequ>:
9d007198:	24020000 	li	v0,0

9d00719c <J999>:
9d00719c:	03e00008 	jr	ra
9d0071a0:	00000000 	nop
9d0071a4:	00000000 	nop

9d0071a8 <Jnan>:
9d0071a8:	1000fffc 	b	9d00719c <J999>
9d0071ac:	00081025 	or	v0,zero,t0
9d0071b0:	00000000 	nop

Disassembly of section .text.repl:

9d0071b4 <repl>:
9d0071b4:	27bdffd8 	addiu	sp,sp,-40
9d0071b8:	afbf0024 	sw	ra,36(sp)
9d0071bc:	afb40020 	sw	s4,32(sp)
9d0071c0:	afb3001c 	sw	s3,28(sp)
9d0071c4:	afb20018 	sw	s2,24(sp)
9d0071c8:	afb10014 	sw	s1,20(sp)
9d0071cc:	afb00010 	sw	s0,16(sp)
9d0071d0:	00a08021 	move	s0,a1
9d0071d4:	0080a021 	move	s4,a0
9d0071d8:	00c09821 	move	s3,a2
9d0071dc:	24120020 	li	s2,32
9d0071e0:	2411ffff 	li	s1,-1
9d0071e4:	12000011 	beqz	s0,9d00722c <repl+0x78>
9d0071e8:	2e020021 	sltiu	v0,s0,33
9d0071ec:	02401821 	move	v1,s2
9d0071f0:	0202180b 	movn	v1,s0,v0
9d0071f4:	02602021 	move	a0,s3
9d0071f8:	00602821 	move	a1,v1
9d0071fc:	02803021 	move	a2,s4
9d007200:	0f401d7a 	jal	9d0075e8 <__sputn>
9d007204:	02038023 	subu	s0,s0,v1
9d007208:	1451fff6 	bne	v0,s1,9d0071e4 <repl+0x30>
9d00720c:	8fbf0024 	lw	ra,36(sp)
9d007210:	8fb40020 	lw	s4,32(sp)
9d007214:	8fb3001c 	lw	s3,28(sp)
9d007218:	8fb20018 	lw	s2,24(sp)
9d00721c:	8fb10014 	lw	s1,20(sp)
9d007220:	8fb00010 	lw	s0,16(sp)
9d007224:	03e00008 	jr	ra
9d007228:	27bd0028 	addiu	sp,sp,40
9d00722c:	00001021 	move	v0,zero
9d007230:	8fbf0024 	lw	ra,36(sp)
9d007234:	8fb40020 	lw	s4,32(sp)
9d007238:	8fb3001c 	lw	s3,28(sp)
9d00723c:	8fb20018 	lw	s2,24(sp)
9d007240:	8fb10014 	lw	s1,20(sp)
9d007244:	8fb00010 	lw	s0,16(sp)
9d007248:	03e00008 	jr	ra
9d00724c:	27bd0028 	addiu	sp,sp,40

Disassembly of section .text.strlen:

9d007250 <strlen>:
9d007250:	30830003 	andi	v1,a0,0x3
9d007254:	1460001e 	bnez	v1,9d0072d0 <strlen+0x80>
9d007258:	00801021 	move	v0,a0
9d00725c:	8c820000 	lw	v0,0(a0)
9d007260:	3c07fefe 	lui	a3,0xfefe
9d007264:	34e7feff 	ori	a3,a3,0xfeff
9d007268:	00471821 	addu	v1,v0,a3
9d00726c:	00021027 	nor	v0,zero,v0
9d007270:	3c068080 	lui	a2,0x8080
9d007274:	34c68080 	ori	a2,a2,0x8080
9d007278:	00621824 	and	v1,v1,v0
9d00727c:	00661824 	and	v1,v1,a2
9d007280:	14600013 	bnez	v1,9d0072d0 <strlen+0x80>
9d007284:	00801021 	move	v0,a0
9d007288:	24420004 	addiu	v0,v0,4
9d00728c:	8c430000 	lw	v1,0(v0)
9d007290:	00672821 	addu	a1,v1,a3
9d007294:	00031827 	nor	v1,zero,v1
9d007298:	00a31824 	and	v1,a1,v1
9d00729c:	00661824 	and	v1,v1,a2
9d0072a0:	5460000c 	bnezl	v1,9d0072d4 <strlen+0x84>
9d0072a4:	80430000 	lb	v1,0(v0)
9d0072a8:	24420004 	addiu	v0,v0,4
9d0072ac:	8c430000 	lw	v1,0(v0)
9d0072b0:	00672821 	addu	a1,v1,a3
9d0072b4:	00031827 	nor	v1,zero,v1
9d0072b8:	00a31824 	and	v1,a1,v1
9d0072bc:	00661824 	and	v1,v1,a2
9d0072c0:	5060fff2 	beqzl	v1,9d00728c <strlen+0x3c>
9d0072c4:	24420004 	addiu	v0,v0,4
9d0072c8:	0b401cb5 	j	9d0072d4 <strlen+0x84>
9d0072cc:	80430000 	lb	v1,0(v0)
9d0072d0:	80430000 	lb	v1,0(v0)
9d0072d4:	5460fffe 	bnezl	v1,9d0072d0 <strlen+0x80>
9d0072d8:	24420001 	addiu	v0,v0,1
9d0072dc:	03e00008 	jr	ra
9d0072e0:	00441023 	subu	v0,v0,a0

Disassembly of section .text.isinf:

9d0072e4 <isinf>:
9d0072e4:	27bdffd8 	addiu	sp,sp,-40
9d0072e8:	afbf0024 	sw	ra,36(sp)
9d0072ec:	afb30020 	sw	s3,32(sp)
9d0072f0:	afb2001c 	sw	s2,28(sp)
9d0072f4:	afb10018 	sw	s1,24(sp)
9d0072f8:	afb00014 	sw	s0,20(sp)
9d0072fc:	7c84f000 	ext	a0,a0,0x0,0x1f
9d007300:	0f401bf0 	jal	9d006fc0 <.LFE0>
9d007304:	3c129d00 	lui	s2,0x9d00
9d007308:	00408021 	move	s0,v0
9d00730c:	00608821 	move	s1,v1
9d007310:	8e467b40 	lw	a2,31552(s2)
9d007314:	8e477b44 	lw	a3,31556(s2)
9d007318:	00402021 	move	a0,v0
9d00731c:	00602821 	move	a1,v1
9d007320:	0f401d94 	jal	9d007650 <__unorddf2>
9d007324:	24130001 	li	s3,1
9d007328:	14400009 	bnez	v0,9d007350 <isinf+0x6c>
9d00732c:	3a620001 	xori	v0,s3,0x1
9d007330:	8e467b40 	lw	a2,31552(s2)
9d007334:	8e477b44 	lw	a3,31556(s2)
9d007338:	02002021 	move	a0,s0
9d00733c:	0f401a09 	jal	9d006824 <__eqdf2>
9d007340:	02202821 	move	a1,s1
9d007344:	28420001 	slti	v0,v0,1
9d007348:	00409821 	move	s3,v0
9d00734c:	3a620001 	xori	v0,s3,0x1
9d007350:	30420001 	andi	v0,v0,0x1
9d007354:	8fbf0024 	lw	ra,36(sp)
9d007358:	8fb30020 	lw	s3,32(sp)
9d00735c:	8fb2001c 	lw	s2,28(sp)
9d007360:	8fb10018 	lw	s1,24(sp)
9d007364:	8fb00014 	lw	s0,20(sp)
9d007368:	03e00008 	jr	ra
9d00736c:	27bd0028 	addiu	sp,sp,40

Disassembly of section .text.isinff:

9d007370 <isinff>:
9d007370:	27bdffd8 	addiu	sp,sp,-40
9d007374:	afbf0024 	sw	ra,36(sp)
9d007378:	afb30020 	sw	s3,32(sp)
9d00737c:	afb2001c 	sw	s2,28(sp)
9d007380:	afb10018 	sw	s1,24(sp)
9d007384:	afb00014 	sw	s0,20(sp)
9d007388:	7c84f000 	ext	a0,a0,0x0,0x1f
9d00738c:	0f401bf0 	jal	9d006fc0 <.LFE0>
9d007390:	3c129d00 	lui	s2,0x9d00
9d007394:	00408021 	move	s0,v0
9d007398:	00608821 	move	s1,v1
9d00739c:	8e467b40 	lw	a2,31552(s2)
9d0073a0:	8e477b44 	lw	a3,31556(s2)
9d0073a4:	00402021 	move	a0,v0
9d0073a8:	00602821 	move	a1,v1
9d0073ac:	0f401d94 	jal	9d007650 <__unorddf2>
9d0073b0:	24130001 	li	s3,1
9d0073b4:	14400009 	bnez	v0,9d0073dc <isinff+0x6c>
9d0073b8:	3a620001 	xori	v0,s3,0x1
9d0073bc:	8e467b40 	lw	a2,31552(s2)
9d0073c0:	8e477b44 	lw	a3,31556(s2)
9d0073c4:	02002021 	move	a0,s0
9d0073c8:	0f401a09 	jal	9d006824 <__eqdf2>
9d0073cc:	02202821 	move	a1,s1
9d0073d0:	28420001 	slti	v0,v0,1
9d0073d4:	00409821 	move	s3,v0
9d0073d8:	3a620001 	xori	v0,s3,0x1
9d0073dc:	30420001 	andi	v0,v0,0x1
9d0073e0:	8fbf0024 	lw	ra,36(sp)
9d0073e4:	8fb30020 	lw	s3,32(sp)
9d0073e8:	8fb2001c 	lw	s2,28(sp)
9d0073ec:	8fb10018 	lw	s1,24(sp)
9d0073f0:	8fb00014 	lw	s0,20(sp)
9d0073f4:	03e00008 	jr	ra
9d0073f8:	27bd0028 	addiu	sp,sp,40

Disassembly of section .text._fflush_simple:

9d0073fc <_fflush_simple>:
9d0073fc:	27bdffe8 	addiu	sp,sp,-24
9d007400:	afbf0014 	sw	ra,20(sp)
9d007404:	afb00010 	sw	s0,16(sp)
9d007408:	94820010 	lhu	v0,16(a0)
9d00740c:	30420002 	andi	v0,v0,0x2
9d007410:	10400013 	beqz	v0,9d007460 <_fflush_simple+0x64>
9d007414:	00808021 	move	s0,a0
9d007418:	8c850000 	lw	a1,0(a0)
9d00741c:	04a0000c 	bltz	a1,9d007450 <_fflush_simple+0x54>
9d007420:	00001021 	move	v0,zero
9d007424:	8c82000c 	lw	v0,12(a0)
9d007428:	50a20006 	beql	a1,v0,9d007444 <_fflush_simple+0x48>
9d00742c:	8e030008 	lw	v1,8(s0)
9d007430:	8c840008 	lw	a0,8(a0)
9d007434:	0f401def 	jal	9d0077bc <_mon_write>
9d007438:	00452823 	subu	a1,v0,a1
9d00743c:	8e02000c 	lw	v0,12(s0)
9d007440:	8e030008 	lw	v1,8(s0)
9d007444:	ae020000 	sw	v0,0(s0)
9d007448:	ae030004 	sw	v1,4(s0)
9d00744c:	00001021 	move	v0,zero
9d007450:	8fbf0014 	lw	ra,20(sp)
9d007454:	8fb00010 	lw	s0,16(sp)
9d007458:	03e00008 	jr	ra
9d00745c:	27bd0018 	addiu	sp,sp,24
9d007460:	2402ffff 	li	v0,-1
9d007464:	ac820004 	sw	v0,4(a0)
9d007468:	00001021 	move	v0,zero
9d00746c:	8fbf0014 	lw	ra,20(sp)
9d007470:	8fb00010 	lw	s0,16(sp)
9d007474:	03e00008 	jr	ra
9d007478:	27bd0018 	addiu	sp,sp,24

Disassembly of section .text._fwrite_simple:

9d00747c <_fwrite_simple>:
9d00747c:	27bdffd8 	addiu	sp,sp,-40
9d007480:	afbf0024 	sw	ra,36(sp)
9d007484:	afb10020 	sw	s1,32(sp)
9d007488:	afb0001c 	sw	s0,28(sp)
9d00748c:	70c58002 	mul	s0,a2,a1
9d007490:	12000007 	beqz	s0,9d0074b0 <_fwrite_simple+0x34>
9d007494:	00001021 	move	v0,zero
9d007498:	94e30010 	lhu	v1,16(a3)
9d00749c:	30630001 	andi	v1,v1,0x1
9d0074a0:	10600008 	beqz	v1,9d0074c4 <_fwrite_simple+0x48>
9d0074a4:	3c03a000 	lui	v1,0xa000
9d0074a8:	24040009 	li	a0,9
9d0074ac:	ac64000c 	sw	a0,12(v1)
9d0074b0:	8fbf0024 	lw	ra,36(sp)
9d0074b4:	8fb10020 	lw	s1,32(sp)
9d0074b8:	8fb0001c 	lw	s0,28(sp)
9d0074bc:	03e00008 	jr	ra
9d0074c0:	27bd0028 	addiu	sp,sp,40
9d0074c4:	00808821 	move	s1,a0
9d0074c8:	00e02021 	move	a0,a3
9d0074cc:	0f401cff 	jal	9d0073fc <_fflush_simple>
9d0074d0:	afa60010 	sw	a2,16(sp)
9d0074d4:	02202021 	move	a0,s1
9d0074d8:	0f401def 	jal	9d0077bc <_mon_write>
9d0074dc:	02002821 	move	a1,s0
9d0074e0:	8fa60010 	lw	a2,16(sp)
9d0074e4:	00c01021 	move	v0,a2
9d0074e8:	8fbf0024 	lw	ra,36(sp)
9d0074ec:	8fb10020 	lw	s1,32(sp)
9d0074f0:	8fb0001c 	lw	s0,28(sp)
9d0074f4:	03e00008 	jr	ra
9d0074f8:	27bd0028 	addiu	sp,sp,40

Disassembly of section .text.fptoli:

9d0074fc <__fixsfsi>:
9d0074fc:	00042a00 3c018000 00a12825 00043dc2     .*.....<%(...=..
9d00750c:	30e700ff 2406009e 00c73023 18c0000d     ...0...$#0......
9d00751c:	00000000 28c10020 14200003 00000000     .... ..(.. .....
9d00752c:	10000005 24020000                       .......$

9d007534 <i42>:
9d007534:	04810002 	bgez	a0,9d007540 <i43>
9d007538:	00c52806 	srlv	a1,a1,a2
9d00753c:	00052823 	negu	a1,a1

9d007540 <i43>:
9d007540:	00051025 	or	v0,zero,a1

9d007544 <G999>:
9d007544:	03e00008 	jr	ra
9d007548:	00000000 	nop
9d00754c:	00000000 	nop

9d007550 <Gspec>:
9d007550:	3c017f80 	lui	at,0x7f80
9d007554:	34210001 	ori	at,at,0x1
9d007558:	0081082b 	sltu	at,a0,at
9d00755c:	14200003 	bnez	at,9d00756c <i44>
9d007560:	00000000 	nop
9d007564:	1000fff7 	b	9d007544 <G999>
9d007568:	3c028000 	lui	v0,0x8000

9d00756c <i44>:
9d00756c:	3c027fff 	lui	v0,0x7fff
9d007570:	1000fff4 	b	9d007544 <G999>
9d007574:	3442ffff 	ori	v0,v0,0xffff
9d007578:	00000000 	nop

Disassembly of section .text._sprintf_fF:

9d00757c <_sprintf_fF>:
9d00757c:	27bdffc8 	addiu	sp,sp,-56
9d007580:	afbf0034 	sw	ra,52(sp)
9d007584:	27a20040 	addiu	v0,sp,64
9d007588:	00801821 	move	v1,a0
9d00758c:	afa60040 	sw	a2,64(sp)
9d007590:	27a40010 	addiu	a0,sp,16
9d007594:	00403021 	move	a2,v0
9d007598:	afa70044 	sw	a3,68(sp)
9d00759c:	2407ffff 	li	a3,-1
9d0075a0:	a7a70022 	sh	a3,34(sp)
9d0075a4:	24070082 	li	a3,130
9d0075a8:	a7a70020 	sh	a3,32(sp)
9d0075ac:	3c077fff 	lui	a3,0x7fff
9d0075b0:	34e7fffe 	ori	a3,a3,0xfffe
9d0075b4:	afa70010 	sw	a3,16(sp)
9d0075b8:	afa30018 	sw	v1,24(sp)
9d0075bc:	afa30014 	sw	v1,20(sp)
9d0075c0:	3c039d00 	lui	v1,0x9d00
9d0075c4:	24637b10 	addiu	v1,v1,31504
9d0075c8:	afa30028 	sw	v1,40(sp)
9d0075cc:	0f400e4c 	jal	9d003930 <_do_print_fF>
9d0075d0:	afa2002c 	sw	v0,44(sp)
9d0075d4:	8fa30014 	lw	v1,20(sp)
9d0075d8:	a0600000 	sb	zero,0(v1)
9d0075dc:	8fbf0034 	lw	ra,52(sp)
9d0075e0:	03e00008 	jr	ra
9d0075e4:	27bd0038 	addiu	sp,sp,56

Disassembly of section .text.__sputn:

9d0075e8 <__sputn>:
9d0075e8:	27bdffd8 	addiu	sp,sp,-40
9d0075ec:	afbf0024 	sw	ra,36(sp)
9d0075f0:	afb30020 	sw	s3,32(sp)
9d0075f4:	afb2001c 	sw	s2,28(sp)
9d0075f8:	afb10018 	sw	s1,24(sp)
9d0075fc:	afb00014 	sw	s0,20(sp)
9d007600:	00808021 	move	s0,a0
9d007604:	00c09021 	move	s2,a2
9d007608:	00858821 	addu	s1,a0,a1
9d00760c:	0b401d8a 	j	9d007628 <__sputn+0x40>
9d007610:	2413ffff 	li	s3,-1
9d007614:	26100001 	addiu	s0,s0,1
9d007618:	0f401c1b 	jal	9d00706c <fputc>
9d00761c:	8204ffff 	lb	a0,-1(s0)
9d007620:	10530005 	beq	v0,s3,9d007638 <__sputn+0x50>
9d007624:	8fbf0024 	lw	ra,36(sp)
9d007628:	1611fffa 	bne	s0,s1,9d007614 <__sputn+0x2c>
9d00762c:	02402821 	move	a1,s2
9d007630:	00001021 	move	v0,zero
9d007634:	8fbf0024 	lw	ra,36(sp)
9d007638:	8fb30020 	lw	s3,32(sp)
9d00763c:	8fb2001c 	lw	s2,28(sp)
9d007640:	8fb10018 	lw	s1,24(sp)
9d007644:	8fb00014 	lw	s0,20(sp)
9d007648:	03e00008 	jr	ra
9d00764c:	27bd0028 	addiu	sp,sp,40

Disassembly of section .text.__unorddf2:

9d007650 <__unorddf2>:
9d007650:	3c027ff0 	lui	v0,0x7ff0
9d007654:	7ca5f000 	ext	a1,a1,0x0,0x1f
9d007658:	24430001 	addiu	v1,v0,1
9d00765c:	00a3182b 	sltu	v1,a1,v1
9d007660:	50600012 	beqzl	v1,9d0076ac <__unorddf2+0x5c>
9d007664:	24020001 	li	v0,1
9d007668:	10a2000a 	beq	a1,v0,9d007694 <__unorddf2+0x44>
9d00766c:	3c037ff0 	lui	v1,0x7ff0
9d007670:	7ce7f000 	ext	a3,a3,0x0,0x1f
9d007674:	24640001 	addiu	a0,v1,1
9d007678:	00e4202b 	sltu	a0,a3,a0
9d00767c:	1080000b 	beqz	a0,9d0076ac <__unorddf2+0x5c>
9d007680:	24020001 	li	v0,1
9d007684:	10e30007 	beq	a3,v1,9d0076a4 <__unorddf2+0x54>
9d007688:	00000000 	nop
9d00768c:	03e00008 	jr	ra
9d007690:	00001021 	move	v0,zero
9d007694:	1080fff6 	beqz	a0,9d007670 <__unorddf2+0x20>
9d007698:	00000000 	nop
9d00769c:	03e00008 	jr	ra
9d0076a0:	24020001 	li	v0,1
9d0076a4:	10c0fff9 	beqz	a2,9d00768c <__unorddf2+0x3c>
9d0076a8:	00000000 	nop
9d0076ac:	03e00008 	jr	ra
9d0076b0:	00000000 	nop

Disassembly of section .text.sitofp:

9d0076b4 <__floatsisf>:
9d0076b4:	3c018000 10800012 00813024 04810002     ...<....$0......
9d0076c4:	00000000 00042023                       ....# ..

9d0076cc <i40>:
9d0076cc:	2405009e 	li	a1,158
9d0076d0:	70873820 	clz	a3,a0
9d0076d4:	00a72823 	subu	a1,a1,a3
9d0076d8:	00e42004 	sllv	a0,a0,a3
9d0076dc:	24840080 	addiu	a0,a0,128
9d0076e0:	2c880080 	sltiu	t0,a0,128
9d0076e4:	00a82821 	addu	a1,a1,t0
9d0076e8:	00044203 	sra	t0,a0,0x8
9d0076ec:	31080001 	andi	t0,t0,0x1
9d0076f0:	00882023 	subu	a0,a0,t0
9d0076f4:	00042040 	sll	a0,a0,0x1
9d0076f8:	00042242 	srl	a0,a0,0x9
9d0076fc:	000545c0 	sll	t0,a1,0x17
9d007700:	00882025 	or	a0,a0,t0

9d007704 <i39>:
9d007704:	00861025 	or	v0,a0,a2

9d007708 <E999>:
9d007708:	03e00008 	jr	ra
9d00770c:	00000000 	nop
9d007710:	00000000 	nop

Disassembly of section .text.main_entry:

9d007714 <_main_entry>:
9d007714:	3c040000 	lui	a0,0x0
9d007718:	27bdffe8 	addiu	sp,sp,-24
9d00771c:	24840000 	addiu	a0,a0,0
9d007720:	10800003 	beqz	a0,9d007730 <_main_entry+0x1c>
9d007724:	afbf0014 	sw	ra,20(sp)
9d007728:	0080f809 	jalr	a0
9d00772c:	00000000 	nop
9d007730:	30840000 	andi	a0,a0,0x0
9d007734:	30a50000 	andi	a1,a1,0x0
9d007738:	3c089d00 	lui	t0,0x9d00
9d00773c:	25082970 	addiu	t0,t0,10608
9d007740:	0100f809 	jalr	t0
9d007744:	00000000 	nop

9d007748 <__crt0_exit>:
9d007748:	3c020000 24420000 10400003 00000000     ...<..B$..@.....
9d007758:	0040f809 00000000 1000fff9 00000000     ..@.............

Disassembly of section .rodata:

9d007768 <zeroData-0x8>:
9d007768:	6c756e28 	0x6c756e28
9d00776c:	0000296c 	0x296c

9d007770 <zeroData>:
9d007770:	30303030 30303030 30303030 30303030     0000000000000000
9d007780:	30303030 30303030 30303030 30303030     0000000000000000

9d007790 <spaceData>:
9d007790:	20202020 20202020 20202020 20202020                     
9d0077a0:	20202020 20202020 20202020 20202020                     
9d0077b0:	41200000 3c23d70a 40800000              .. A..#<...@

Disassembly of section .text._mon_write:

9d0077bc <_mon_write>:
9d0077bc:	27bdffe0 	addiu	sp,sp,-32
9d0077c0:	afbf001c 	sw	ra,28(sp)
9d0077c4:	afb10018 	sw	s1,24(sp)
9d0077c8:	afb00014 	sw	s0,20(sp)
9d0077cc:	10800009 	beqz	a0,9d0077f4 <_mon_write+0x38>
9d0077d0:	00808021 	move	s0,a0
9d0077d4:	10a00007 	beqz	a1,9d0077f4 <_mon_write+0x38>
9d0077d8:	00a08821 	move	s1,a1
9d0077dc:	82040000 	lb	a0,0(s0)
9d0077e0:	2631ffff 	addiu	s1,s1,-1
9d0077e4:	0f401bbb 	jal	9d006eec <_mon_putc>
9d0077e8:	26100001 	addiu	s0,s0,1
9d0077ec:	5620fffc 	bnezl	s1,9d0077e0 <_mon_write+0x24>
9d0077f0:	82040000 	lb	a0,0(s0)
9d0077f4:	8fbf001c 	lw	ra,28(sp)
9d0077f8:	8fb10018 	lw	s1,24(sp)
9d0077fc:	8fb00014 	lw	s0,20(sp)
9d007800:	03e00008 	jr	ra
9d007804:	27bd0020 	addiu	sp,sp,32

Disassembly of section .text._bootstrap_exception_handler:

9d007808 <_bootstrap_exception_handler>:
9d007808:	3c020000 	lui	v0,0x0
9d00780c:	24420000 	addiu	v0,v0,0
9d007810:	10400005 	beqz	v0,9d007828 <_bootstrap_exception_handler+0x20>
9d007814:	3c020000 	lui	v0,0x0
9d007818:	24420000 	addiu	v0,v0,0
9d00781c:	10400003 	beqz	v0,9d00782c <_bootstrap_exception_handler+0x24>
9d007820:	3c029d00 	lui	v0,0x9d00
9d007824:	7000003f 	sdbbp
9d007828:	3c029d00 	lui	v0,0x9d00
9d00782c:	244278e0 	addiu	v0,v0,30944
9d007830:	10400005 	beqz	v0,9d007848 <_bootstrap_exception_handler+0x40>
9d007834:	00000000 	nop
9d007838:	27bdffe8 	addiu	sp,sp,-24
9d00783c:	afbf0014 	sw	ra,20(sp)
9d007840:	0040f809 	jalr	v0
9d007844:	00000000 	nop
9d007848:	0b401e12 	j	9d007848 <_bootstrap_exception_handler+0x40>
9d00784c:	00000000 	nop

Disassembly of section .text._general_exception_handler:

9d007850 <_general_exception_handler>:
9d007850:	3c020000 	lui	v0,0x0
9d007854:	24420000 	addiu	v0,v0,0
9d007858:	10400005 	beqz	v0,9d007870 <_general_exception_handler+0x20>
9d00785c:	3c020000 	lui	v0,0x0
9d007860:	24420000 	addiu	v0,v0,0
9d007864:	10400003 	beqz	v0,9d007874 <_general_exception_handler+0x24>
9d007868:	3c029d00 	lui	v0,0x9d00
9d00786c:	7000003f 	sdbbp
9d007870:	3c029d00 	lui	v0,0x9d00
9d007874:	244278e0 	addiu	v0,v0,30944
9d007878:	10400005 	beqz	v0,9d007890 <_general_exception_handler+0x40>
9d00787c:	00000000 	nop
9d007880:	27bdffe8 	addiu	sp,sp,-24
9d007884:	afbf0014 	sw	ra,20(sp)
9d007888:	0040f809 	jalr	v0
9d00788c:	00000000 	nop
9d007890:	0b401e24 	j	9d007890 <_general_exception_handler+0x40>
9d007894:	00000000 	nop

Disassembly of section .vector_default:

9d007898 <_DefaultInterrupt>:
9d007898:	3c020000 	lui	v0,0x0
9d00789c:	24420000 	addiu	v0,v0,0
9d0078a0:	10400007 	beqz	v0,9d0078c0 <_DefaultInterrupt+0x28>
9d0078a4:	3c020000 	lui	v0,0x0
9d0078a8:	24420000 	addiu	v0,v0,0
9d0078ac:	50400005 	beqzl	v0,9d0078c4 <_DefaultInterrupt+0x2c>
9d0078b0:	3c029d00 	lui	v0,0x9d00
9d0078b4:	7000003f 	sdbbp
9d0078b8:	03e00008 	jr	ra
9d0078bc:	00000000 	nop
9d0078c0:	3c029d00 	lui	v0,0x9d00
9d0078c4:	244278e0 	addiu	v0,v0,30944
9d0078c8:	10400003 	beqz	v0,9d0078d8 <_DefaultInterrupt+0x40>
9d0078cc:	00000000 	nop
9d0078d0:	0040f809 	jalr	v0
9d0078d4:	00000000 	nop
9d0078d8:	03e00008 	jr	ra
9d0078dc:	00000000 	nop

Disassembly of section .text:

9d0078e0 <__pic32_software_reset>:
9d0078e0:	41606000 	di
9d0078e4:	000000c0 	ehb
9d0078e8:	3c03aa99 	lui	v1,0xaa99
9d0078ec:	3c02bf81 	lui	v0,0xbf81
9d0078f0:	24636655 	addiu	v1,v1,26197
9d0078f4:	ac40f230 	sw	zero,-3536(v0)
9d0078f8:	ac43f230 	sw	v1,-3536(v0)
9d0078fc:	3c035566 	lui	v1,0x5566
9d007900:	346399aa 	ori	v1,v1,0x99aa
9d007904:	ac43f230 	sw	v1,-3536(v0)
9d007908:	3c02bf81 	lui	v0,0xbf81
9d00790c:	24030001 	li	v1,1
9d007910:	ac43f618 	sw	v1,-2536(v0)
9d007914:	3c02bf81 	lui	v0,0xbf81
9d007918:	8c42f610 	lw	v0,-2544(v0)
9d00791c:	0b401e3a 	j	9d0078e8 <__pic32_software_reset+0x8>
9d007920:	00000000 	nop

Disassembly of section .text.isnan:

9d007924 <isnan>:
9d007924:	27bdffe8 	addiu	sp,sp,-24
9d007928:	afbf0014 	sw	ra,20(sp)
9d00792c:	0f401bf0 	jal	9d006fc0 <.LFE0>
9d007930:	00000000 	nop
9d007934:	00402021 	move	a0,v0
9d007938:	00602821 	move	a1,v1
9d00793c:	00403021 	move	a2,v0
9d007940:	0f401d94 	jal	9d007650 <__unorddf2>
9d007944:	00603821 	move	a3,v1
9d007948:	0002102b 	sltu	v0,zero,v0
9d00794c:	8fbf0014 	lw	ra,20(sp)
9d007950:	03e00008 	jr	ra
9d007954:	27bd0018 	addiu	sp,sp,24

Disassembly of section .text.isnanf:

9d007958 <isnanf>:
9d007958:	27bdffe8 	addiu	sp,sp,-24
9d00795c:	afbf0014 	sw	ra,20(sp)
9d007960:	0f401bf0 	jal	9d006fc0 <.LFE0>
9d007964:	00000000 	nop
9d007968:	00402021 	move	a0,v0
9d00796c:	00602821 	move	a1,v1
9d007970:	00403021 	move	a2,v0
9d007974:	0f401d94 	jal	9d007650 <__unorddf2>
9d007978:	00603821 	move	a3,v1
9d00797c:	0002102b 	sltu	v0,zero,v0
9d007980:	8fbf0014 	lw	ra,20(sp)
9d007984:	03e00008 	jr	ra
9d007988:	27bd0018 	addiu	sp,sp,24

Disassembly of section .text._filbuf_simple:

9d00798c <_filbuf_simple>:
9d00798c:	8c820004 	lw	v0,4(a0)
9d007990:	2403ffff 	li	v1,-1
9d007994:	10430003 	beq	v0,v1,9d0079a4 <_filbuf_simple+0x18>
9d007998:	ac800000 	sw	zero,0(a0)
9d00799c:	03e00008 	jr	ra
9d0079a0:	ac830004 	sw	v1,4(a0)
9d0079a4:	27bdffe8 	addiu	sp,sp,-24
9d0079a8:	afbf0014 	sw	ra,20(sp)
9d0079ac:	0f401b16 	jal	9d006c58 <_mon_getc>
9d0079b0:	24040001 	li	a0,1
9d0079b4:	8fbf0014 	lw	ra,20(sp)
9d0079b8:	03e00008 	jr	ra
9d0079bc:	27bd0018 	addiu	sp,sp,24

Disassembly of section .text._fsync_simple:

9d0079c0 <_fsync_simple>:
9d0079c0:	94830010 	lhu	v1,16(a0)
9d0079c4:	00a32824 	and	a1,a1,v1
9d0079c8:	10a00007 	beqz	a1,9d0079e8 <_fsync_simple+0x28>
9d0079cc:	24020001 	li	v0,1
9d0079d0:	34630040 	ori	v1,v1,0x40
9d0079d4:	a4830010 	sh	v1,16(a0)
9d0079d8:	24030009 	li	v1,9
9d0079dc:	3c02a000 	lui	v0,0xa000
9d0079e0:	ac43000c 	sw	v1,12(v0)
9d0079e4:	00001021 	move	v0,zero
9d0079e8:	03e00008 	jr	ra
9d0079ec:	00000000 	nop

Disassembly of section .text.isnanl:

9d0079f0 <isnanl>:
9d0079f0:	3c037ff0 	lui	v1,0x7ff0
9d0079f4:	00653024 	and	a2,v1,a1
9d0079f8:	10c30003 	beq	a2,v1,9d007a08 <isnanl+0x18>
9d0079fc:	00001021 	move	v0,zero
9d007a00:	03e00008 	jr	ra
9d007a04:	00000000 	nop
9d007a08:	7ca29800 	ext	v0,a1,0x0,0x14
9d007a0c:	00441025 	or	v0,v0,a0
9d007a10:	03e00008 	jr	ra
9d007a14:	0002102b 	sltu	v0,zero,v0

Disassembly of section .text.isinfl:

9d007a18 <isinfl>:
9d007a18:	3c037ff0 	lui	v1,0x7ff0
9d007a1c:	00653024 	and	a2,v1,a1
9d007a20:	10c30003 	beq	a2,v1,9d007a30 <isinfl+0x18>
9d007a24:	00001021 	move	v0,zero
9d007a28:	03e00008 	jr	ra
9d007a2c:	00000000 	nop
9d007a30:	7ca29800 	ext	v0,a1,0x0,0x14
9d007a34:	00441025 	or	v0,v0,a0
9d007a38:	03e00008 	jr	ra
9d007a3c:	2c420001 	sltiu	v0,v0,1

Disassembly of section .text.putchar:

9d007a40 <putchar>:
9d007a40:	27bdffe8 	addiu	sp,sp,-24
9d007a44:	afbf0014 	sw	ra,20(sp)
9d007a48:	3c02a000 	lui	v0,0xa000
9d007a4c:	8c420000 	lw	v0,0(v0)
9d007a50:	0f401c1b 	jal	9d00706c <fputc>
9d007a54:	8c450004 	lw	a1,4(v0)
9d007a58:	8fbf0014 	lw	ra,20(sp)
9d007a5c:	03e00008 	jr	ra
9d007a60:	27bd0018 	addiu	sp,sp,24

Disassembly of section .rodata:

9d007a64 <.rodata>:
9d007a64:	66253d78 	0x66253d78
9d007a68:	3d79202c 	0x3d79202c
9d007a6c:	0d662520 	jal	95989480 <_bmxdkpba_address+0x95969480>
9d007a70:	0000000a 	movz	zero,zero,zero
9d007a74:	3a6bedfa 	xori	t3,s3,0xedfa
9d007a78:	42b40000 	c0	0xb40000
9d007a7c:	3c8ef34d 	0x3c8ef34d
9d007a80:	40e00000 	0x40e00000

Disassembly of section .text._vfprintf_fF:

9d007a84 <_vfprintf_fF>:
9d007a84:	27bdffe8 	addiu	sp,sp,-24
9d007a88:	afbf0014 	sw	ra,20(sp)
9d007a8c:	0f400e4c 	jal	9d003930 <_do_print_fF>
9d007a90:	00000000 	nop
9d007a94:	8fbf0014 	lw	ra,20(sp)
9d007a98:	03e00008 	jr	ra
9d007a9c:	27bd0018 	addiu	sp,sp,24

Disassembly of section .text.putc:

9d007aa0 <putc>:
9d007aa0:	27bdffe8 	addiu	sp,sp,-24
9d007aa4:	afbf0014 	sw	ra,20(sp)
9d007aa8:	0f401c1b 	jal	9d00706c <fputc>
9d007aac:	00000000 	nop
9d007ab0:	8fbf0014 	lw	ra,20(sp)
9d007ab4:	03e00008 	jr	ra
9d007ab8:	27bd0018 	addiu	sp,sp,24

Disassembly of section .text:

9d007abc <_nmi_handler>:
9d007abc:	401a6000 	mfc0	k0,c0_status
9d007ac0:	3c1bffbf 	lui	k1,0xffbf
9d007ac4:	377bffff 	ori	k1,k1,0xffff
9d007ac8:	035bd024 	and	k0,k0,k1
9d007acc:	409a6000 	mtc0	k0,c0_status
9d007ad0:	42000018 	eret

Disassembly of section .text._io_exit:

9d007ad4 <_io_exit>:
9d007ad4:	3c02a000 	lui	v0,0xa000
9d007ad8:	8c420000 	lw	v0,0(v0)
9d007adc:	24030001 	li	v1,1
9d007ae0:	03e00008 	jr	ra
9d007ae4:	ac430038 	sw	v1,56(v0)

Disassembly of section .rodata:

9d007ae8 <_io_funcs>:
9d007ae8:	9d00798c 9d006b5c 9d0073fc 9d00747c     .y..\k...s..|t..
9d007af8:	9d0079c0                                .y..

Disassembly of section .text._io_exit:

9d007afc <.text._io_exit>:
9d007afc:	3c02a000 	lui	v0,0xa000
9d007b00:	8c420000 	lw	v0,0(v0)
9d007b04:	24030001 	li	v1,1
9d007b08:	03e00008 	jr	ra
9d007b0c:	ac430038 	sw	v1,56(v0)

Disassembly of section .rodata:

9d007b10 <_io_strfuncs>:
9d007b10:	9d007b48 9d007b50 9d007b58 9d007b60     H{..P{..X{..`{..
9d007b20:	9d007b68 40000000 3a83126f              h{.....@o..:

Disassembly of section .text._on_reset:

9d007b2c <_on_reset>:
9d007b2c:	03e00008 	jr	ra
9d007b30:	00000000 	nop

Disassembly of section .text._on_bootstrap:

9d007b34 <_on_bootstrap>:
9d007b34:	03e00008 	jr	ra
9d007b38:	00000000 	nop

Disassembly of section .rodata:

9d007b40 <.rodata>:
9d007b40:	ffffffff 	sdc3	$31,-1(ra)
9d007b44:	7fefffff 	0x7fefffff

Disassembly of section .text._filbuf_string:

9d007b48 <_filbuf_string>:
9d007b48:	03e00008 	jr	ra
9d007b4c:	2402ffff 	li	v0,-1

Disassembly of section .text._flsbuf_string:

9d007b50 <_flsbuf_string>:
9d007b50:	03e00008 	jr	ra
9d007b54:	00801021 	move	v0,a0

Disassembly of section .text._fflush_string:

9d007b58 <_fflush_string>:
9d007b58:	03e00008 	jr	ra
9d007b5c:	00001021 	move	v0,zero

Disassembly of section .text._fwrite_string:

9d007b60 <_fwrite_string>:
9d007b60:	03e00008 	jr	ra
9d007b64:	00001021 	move	v0,zero

Disassembly of section .text._fsync_string:

9d007b68 <_fsync_string>:
9d007b68:	03e00008 	jr	ra
9d007b6c:	24020001 	li	v0,1

Disassembly of section .rodata:

9d007b3c <.rodata>:
9d007b3c:	3f800000 	0x3f800000
